ccollections
OrderedDict
p0
((lp1
(lp2
S'articles/1/cit/C6'
p3
aF0.785
aa(lp4
S'articles/1/cit/C7'
p5
aF0.695
aa(lp6
S'articles/1/cit/C8'
p7
aF0.785
aa(lp8
S'articles/1/cit/C9'
p9
aF0.747
aatp10
Rp11
.