(dp0
I32769
I2007
sI32771
I2007
sI65540
I2010
sI65541
I2010
sI65543
I2010
sI70530
I2010
sI65548
I2010
sI65550
I2010
sI43693
I2008
sI65554
I2010
sI65555
I2010
sI98325
I2012
sI91305
I2011
sI32791
I2007
sI92847
I2011
sI98332
I2012
sI32799
I2007
sI98337
I2012
sI98338
I2012
sI98340
I2012
sI98341
I2012
sI65574
I2010
sI65575
I2010
sI32808
I2007
sI98345
I2012
sI32811
I2007
sI65580
I2010
sI32815
I2007
sI32818
I2007
sI32819
I2007
sI98356
I2012
sI87390
I2011
sI32831
I2007
sI98368
I2012
sI65602
I2010
sI65605
I2010
sI65470
I2010
sI65611
I2010
sI32847
I2007
sI65618
I2010
sI43705
I2008
sI32858
I2007
sI32859
I2007
sI32860
I2007
sI65629
I2010
sI60091
I2009
sI87398
I2011
sI65639
I2010
sI65642
I2010
sI65643
I2010
sI98412
I2012
sI32879
I2007
sI98416
I2012
sI69836
I2010
sI32886
I2007
sI71017
I2010
sI32889
I2007
sI32890
I2007
sI65659
I2010
sI32892
I2007
sI98429
I2012
sI98430
I2012
sI65665
I2010
sI65668
I2010
sI98439
I2012
sI54637
I2009
sI98449
I2012
sI98450
I2012
sI98455
I2012
sI98457
I2012
sI65690
I2010
sI95769
I2011
sI65692
I2010
sI65697
I2010
sI65698
I2010
sI98474
I2012
sI44742
I2008
sI98488
I2012
sI98335
I2012
sI65724
I2010
sI43722
I2008
sI65726
I2010
sI65730
I2010
sI65731
I2010
sI98504
I2012
sI32975
I2007
sI98524
I2012
sI98525
I2012
sI32996
I2007
sI32999
I2007
sI33000
I2007
sI33001
I2007
sI33003
I2007
sI98541
I2012
sI87421
I2011
sI98545
I2012
sI65778
I2010
sI98548
I2012
sI65784
I2010
sI33022
I2007
sI98210
I2012
sI65579
I2010
sI98348
I2012
sI33034
I2007
sI98574
I2012
sI65807
I2010
sI98577
I2012
sI65810
I2010
sI98579
I2012
sI98351
I2012
sI33054
I2007
sI33055
I2007
sI33056
I2007
sI33057
I2007
sI43739
I2008
sI33060
I2007
sI65829
I2010
sI65830
I2010
sI65831
I2010
sI65833
I2010
sI65834
I2010
sI98354
I2012
sI98608
I2012
sI98609
I2012
sI33083
I2007
sI65852
I2010
sI33085
I2007
sI98622
I2012
sI65858
I2010
sI33092
I2007
sI65861
I2010
sI65862
I2010
sI33095
I2007
sI33096
I2007
sI33097
I2007
sI33099
I2007
sI33100
I2007
sI33101
I2007
sI98643
I2012
sI65880
I2010
sI97122
I2011
sI33121
I2007
sI65890
I2010
sI33123
I2007
sI65894
I2010
sI65897
I2010
sI84029
I2011
sI33138
I2007
sI98675
I2012
sI81982
I2011
sI33142
I2007
sI43753
I2008
sI33152
I2007
sI33155
I2007
sI33157
I2007
sI33160
I2007
sI33161
I2007
sI81182
I2011
sI58934
I2009
sI98701
I2012
sI65940
I2010
sI33177
I2007
sI65955
I2010
sI65956
I2010
sI65957
I2010
sI65607
I2010
sI65964
I2010
sI33197
I2007
sI33198
I2007
sI98735
I2012
sI33200
I2007
sI33201
I2007
sI65974
I2010
sI76532
I2011
sI98746
I2012
sI65979
I2010
sI51676
I2009
sI65982
I2010
sI33225
I2007
sI65994
I2010
sI65995
I2010
sI33232
I2007
sI33233
I2007
sI33235
I2007
sI33239
I2007
sI33242
I2007
sI66015
I2010
sI33250
I2007
sI51299
I2009
sI33252
I2007
sI66026
I2010
sI66031
I2010
sI66032
I2010
sI66033
I2010
sI98804
I2012
sI33270
I2007
sI71081
I2010
sI33272
I2007
sI98810
I2012
sI11007
I2005
sI66044
I2010
sI98813
I2012
sI98814
I2012
sI98815
I2012
sI98816
I2012
sI66049
I2010
sI33282
I2007
sI58938
I2009
sI33285
I2007
sI33287
I2007
sI33288
I2007
sI33292
I2007
sI33293
I2007
sI98830
I2012
sI33295
I2007
sI46936
I2008
sI65626
I2010
sI66081
I2010
sI66083
I2010
sI66086
I2010
sI66087
I2010
sI98856
I2012
sI66089
I2010
sI66096
I2010
sI66097
I2010
sI99973
I2012
sI98872
I2012
sI98875
I2012
sI98876
I2012
sI66111
I2010
sI33345
I2007
sI33346
I2007
sI89694
I2011
sI66118
I2010
sI66119
I2010
sI66120
I2010
sI66121
I2010
sI72034
I2010
sI33358
I2007
sI33360
I2007
sI33361
I2007
sI33362
I2007
sI33363
I2007
sI98901
I2012
sI33369
I2007
sI98906
I2012
sI66140
I2010
sI33373
I2007
sI98910
I2012
sI33381
I2007
sI66151
I2010
sI66152
I2010
sI71100
I2010
sI33386
I2007
sI98923
I2012
sI98924
I2012
sI33389
I2007
sI98928
I2012
sI33393
I2007
sI33395
I2007
sI33396
I2007
sI33397
I2007
sI33403
I2007
sI98410
I2012
sI33408
I2007
sI98951
I2012
sI98954
I2012
sI98955
I2012
sI33421
I2007
sI66191
I2010
sI11032
I2005
sI54723
I2009
sI66196
I2010
sI33430
I2007
sI66199
I2010
sI66201
I2010
sI98984
I2012
sI33449
I2007
sI33457
I2007
sI33460
I2007
sI66231
I2010
sI66232
I2010
sI66233
I2010
sI33466
I2007
sI33467
I2007
sI87498
I2011
sI66238
I2010
sI99007
I2012
sI66240
I2010
sI66241
I2010
sI98422
I2012
sI66246
I2010
sI66249
I2010
sI99022
I2012
sI66256
I2010
sI66259
I2010
sI66261
I2010
sI99030
I2012
sI92964
I2011
sI65492
I2010
sI65658
I2010
sI33502
I2007
sI99040
I2012
sI33509
I2007
sI33513
I2007
sI92967
I2011
sI66288
I2010
sI43816
I2008
sI33525
I2007
sI66294
I2010
sI66295
I2010
sI66298
I2010
sI43818
I2008
sI70055
I2010
sI87513
I2011
sI16512
I2006
sI33540
I2007
sI54742
I2009
sI33542
I2007
sI72892
I2010
sI66312
I2010
sI92972
I2011
sI66315
I2010
sI66317
I2010
sI66318
I2010
sI33551
I2007
sI66321
I2010
sI33558
I2007
sI54745
I2009
sI65494
I2010
sI54746
I2009
sI33567
I2007
sI33570
I2007
sI33574
I2007
sI33575
I2007
sI33577
I2007
sI66346
I2010
sI82055
I2011
sI33586
I2007
sI66357
I2010
sI99128
I2012
sI99130
I2012
sI82058
I2011
sI66367
I2010
sI66368
I2010
sI78589
I2011
sI99141
I2012
sI33606
I2007
sI66375
I2010
sI66376
I2010
sI66377
I2010
sI8757
I2004
sI66382
I2010
sI66383
I2010
sI33616
I2007
sI66385
I2010
sI66387
I2010
sI33622
I2007
sI33623
I2007
sI99161
I2012
sI33627
I2007
sI33629
I2007
sI33634
I2007
sI33637
I2007
sI66406
I2010
sI82065
I2011
sI66409
I2010
sI66413
I2010
sI66415
I2010
sI66418
I2010
sI66420
I2010
sI66421
I2010
sI66424
I2010
sI33657
I2007
sI33658
I2007
sI33667
I2007
sI33671
I2007
sI33672
I2007
sI99209
I2012
sI66443
I2010
sI66589
I2010
sI33677
I2007
sI66447
I2010
sI66449
I2010
sI99218
I2012
sI99219
I2012
sI99221
I2012
sI66462
I2010
sI33698
I2007
sI66471
I2010
sI98460
I2012
sI33707
I2007
sI66476
I2010
sI66477
I2010
sI66478
I2010
sI66479
I2010
sI66480
I2010
sI66481
I2010
sI33714
I2007
sI66483
I2010
sI33716
I2007
sI33717
I2007
sI33718
I2007
sI33719
I2007
sI66493
I2010
sI33737
I2007
sI66509
I2010
sI43853
I2008
sI33747
I2007
sI66522
I2010
sI33756
I2007
sI33757
I2007
sI51316
I2009
sI33766
I2007
sI66535
I2010
sI33769
I2007
sI33770
I2007
sI33773
I2007
sI66542
I2010
sI66543
I2010
sI66545
I2010
sI66547
I2010
sI66549
I2010
sI66551
I2010
sI66554
I2010
sI66564
I2010
sI33809
I2007
sI66583
I2010
sI54788
I2009
sI66586
I2010
sI79877
I2011
sI33820
I2007
sI33821
I2007
sI66591
I2010
sI66592
I2010
sI66594
I2010
sI66596
I2010
sI33829
I2007
sI33830
I2007
sI66604
I2010
sI33837
I2007
sI66606
I2010
sI67875
I2010
sI33874
I2007
sI33875
I2007
sI54798
I2009
sI33878
I2007
sI33879
I2007
sI33880
I2007
sI33881
I2007
sI33882
I2007
sI84054
I2011
sI33888
I2007
sI66658
I2010
sI66662
I2010
sI33895
I2007
sI33897
I2007
sI66666
I2010
sI33900
I2007
sI66669
I2010
sI98493
I2012
sI66674
I2010
sI66676
I2010
sI66678
I2010
sI66680
I2010
sI66682
I2010
sI49343
I2009
sI66694
I2010
sI66698
I2010
sI66701
I2010
sI66707
I2010
sI43887
I2008
sI66725
I2010
sI66734
I2010
sI33969
I2007
sI33970
I2007
sI33971
I2007
sI66740
I2010
sI33974
I2007
sI5663
I2003
sI33981
I2007
sI66758
I2010
sI66760
I2010
sI66761
I2010
sI66763
I2010
sI66770
I2010
sI76665
I2011
sI66776
I2010
sI87588
I2011
sI98511
I2012
sI66781
I2010
sI87589
I2011
sI66784
I2010
sI66785
I2010
sI66786
I2010
sI34019
I2007
sI48454
I2008
sI34027
I2007
sI34030
I2007
sI66801
I2010
sI43903
I2008
sI66817
I2010
sI66818
I2010
sI66819
I2010
sI66820
I2010
sI34064
I2007
sI66833
I2010
sI66834
I2010
sI76675
I2011
sI66836
I2010
sI66839
I2010
sI34079
I2007
sI34083
I2007
sI69876
I2010
sI66854
I2010
sI66859
I2010
sI34092
I2007
sI38450
I2008
sI66862
I2010
sI34095
I2007
sI34099
I2007
sI82796
I2011
sI5685
I2003
sI66880
I2010
sI66885
I2010
sI43690
I2008
sI87608
I2011
sI66898
I2010
sI65764
I2010
sI43919
I2008
sI54842
I2009
sI66915
I2010
sI66605
I2010
sI71229
I2010
sI66928
I2010
sI65768
I2010
sI66931
I2010
sI103998
I2012
sI66936
I2010
sI38463
I2008
sI66942
I2010
sI76694
I2011
sI66954
I2010
sI104002
I2012
sI66966
I2010
sI66967
I2010
sI66973
I2010
sI66978
I2010
sI66982
I2010
sI71239
I2010
sI90612
I2011
sI66992
I2010
sI82163
I2011
sI66997
I2010
sI67009
I2010
sI82167
I2011
sI82168
I2011
sI97160
I2011
sI67028
I2010
sI67029
I2010
sI82169
I2011
sI67032
I2010
sI67033
I2010
sI67036
I2010
sI99805
I2012
sI67038
I2010
sI71249
I2010
sI93095
I2011
sI67056
I2010
sI67057
I2010
sI98558
I2012
sI67064
I2010
sI67065
I2010
sI34298
I2007
sI99835
I2012
sI34300
I2007
sI34301
I2007
sI34303
I2007
sI67075
I2010
sI34308
I2007
sI34311
I2007
sI16642
I2006
sI67086
I2010
sI34319
I2007
sI45879
I2008
sI65795
I2010
sI34324
I2007
sI99861
I2012
sI99862
I2012
sI67095
I2010
sI99869
I2012
sI34334
I2007
sI34335
I2007
sI67106
I2010
sI67107
I2010
sI67108
I2010
sI64429
I2009
sI67114
I2010
sI67116
I2010
sI67117
I2010
sI67118
I2010
sI67121
I2010
sI93107
I2011
sI67126
I2010
sI67127
I2010
sI99896
I2012
sI67129
I2010
sI99898
I2012
sI67131
I2010
sI67133
I2010
sI67136
I2010
sI1602
I1989
sI99909
I2012
sI71265
I2010
sI93111
I2011
sI67149
I2010
sI82189
I2011
sI99921
I2012
sI67159
I2010
sI67160
I2010
sI67161
I2010
sI82191
I2011
sI67165
I2010
sI67166
I2010
sI67167
I2010
sI67168
I2010
sI82192
I2011
sI67170
I2010
sI67171
I2010
sI67175
I2010
sI67176
I2010
sI67177
I2010
sI16658
I2006
sI67185
I2010
sI99955
I2012
sI93118
I2011
sI67190
I2010
sI99960
I2012
sI67195
I2010
sI82197
I2011
sI104043
I2012
sI82198
I2011
sI34440
I2007
sI67209
I2010
sI34444
I2007
sI109506
I2012
sI34447
I2007
sI34449
I2007
sI34450
I2007
sI71278
I2010
sI34460
I2007
sI99998
I2012
sI34463
I2007
sI67232
I2010
sI67239
I2010
sI78618
I2011
sI67244
I2010
sI87666
I2011
sI34478
I2007
sI100016
I2012
sI34483
I2007
sI76745
I2011
sI67256
I2010
sI100025
I2012
sI67259
I2010
sI80691
I2011
sI67262
I2010
sI34495
I2007
sI49440
I2009
sI67269
I2010
sI67270
I2010
sI67271
I2010
sI11212
I2005
sI100043
I2012
sI93133
I2011
sI34513
I2007
sI100050
I2012
sI67283
I2010
sI67286
I2010
sI67287
I2010
sI67288
I2010
sI65828
I2010
sI67294
I2010
sI98597
I2012
sI100064
I2012
sI34532
I2007
sI67302
I2010
sI44795
I2008
sI34538
I2007
sI100075
I2012
sI34545
I2007
sI67317
I2010
sI67319
I2010
sI93140
I2011
sI34554
I2007
sI67324
I2010
sI34559
I2008
sI34560
I2008
sI8959
I2004
sI60375
I2009
sI34572
I2008
sI34573
I2008
sI34575
I2008
sI67345
I2010
sI67346
I2010
sI34579
I2008
sI34582
I2008
sI67351
I2010
sI67353
I2010
sI67354
I2010
sI67355
I2010
sI34588
I2008
sI67358
I2010
sI82224
I2011
sI34601
I2008
sI34606
I2008
sI67375
I2010
sI34610
I2008
sI98263
I2012
sI71305
I2010
sI34619
I2008
sI34623
I2008
sI34624
I2008
sI67401
I2010
sI58983
I2009
sI100172
I2012
sI34637
I2008
sI34639
I2008
sI100176
I2012
sI34642
I2008
sI34647
I2008
sI67416
I2010
sI100185
I2012
sI100189
I2012
sI34655
I2008
sI34657
I2008
sI65851
I2010
sI100197
I2012
sI34666
I2008
sI100203
I2012
sI100205
I2012
sI65853
I2010
sI34673
I2008
sI67444
I2010
sI67447
I2010
sI34682
I2008
sI100220
I2012
sI100221
I2012
sI67454
I2010
sI34690
I2008
sI100231
I2012
sI67467
I2010
sI67468
I2010
sI67476
I2010
sI100247
I2012
sI34712
I2008
sI34713
I2008
sI100250
I2012
sI34715
I2008
sI67484
I2010
sI34719
I2008
sI100256
I2012
sI34721
I2008
sI100260
I2012
sI100262
I2012
sI100263
I2012
sI65863
I2010
sI100269
I2012
sI34734
I2008
sI34735
I2008
sI67506
I2010
sI34741
I2008
sI34742
I2008
sI65865
I2010
sI34746
I2008
sI67515
I2010
sI67516
I2010
sI9886
I2004
sI67519
I2010
sI100289
I2012
sI65867
I2010
sI34757
I2008
sI34759
I2008
sI100300
I2012
sI100302
I2012
sI67536
I2010
sI100306
I2012
sI100309
I2012
sI34776
I2008
sI67550
I2010
sI67551
I2010
sI34786
I2008
sI67555
I2010
sI34789
I2008
sI34790
I2008
sI82257
I2011
sI34792
I2008
sI100331
I2012
sI34796
I2008
sI76797
I2011
sI34801
I2008
sI34802
I2008
sI78629
I2011
sI34807
I2008
sI100346
I2012
sI34811
I2008
sI34813
I2008
sI100350
I2012
sI34816
I2008
sI34819
I2008
sI34829
I2008
sI34830
I2008
sI100369
I2012
sI100371
I2012
sI100377
I2012
sI34847
I2008
sI71344
I2010
sI34851
I2008
sI34852
I2008
sI71345
I2010
sI34857
I2008
sI100399
I2012
sI34870
I2008
sI34874
I2008
sI100413
I2012
sI100417
I2012
sI90634
I2011
sI65889
I2010
sI100425
I2012
sI34894
I2008
sI92817
I2011
sI34905
I2008
sI34908
I2008
sI100448
I2012
sI34918
I2008
sI100455
I2012
sI34931
I2008
sI100468
I2012
sI100469
I2012
sI49513
I2009
sI100477
I2012
sI100479
I2012
sI34945
I2008
sI100482
I2012
sI100483
I2012
sI34950
I2008
sI34951
I2008
sI34954
I2008
sI100491
I2012
sI34958
I2008
sI100495
I2012
sI34962
I2008
sI34963
I2008
sI34964
I2008
sI2200
I2000
sI100506
I2012
sI100511
I2012
sI100518
I2012
sI100519
I2012
sI76828
I2011
sI34986
I2008
sI34987
I2008
sI67758
I2010
sI60445
I2009
sI34993
I2008
sI76830
I2011
sI35008
I2008
sI67777
I2010
sI67779
I2010
sI67780
I2010
sI100549
I2012
sI35016
I2008
sI35017
I2008
sI35019
I2008
sI100558
I2012
sI2255
I2000
sI67793
I2010
sI44067
I2008
sI83001
I2011
sI35033
I2008
sI2270
I2000
sI100576
I2012
sI35041
I2008
sI35042
I2008
sI67812
I2010
sI35045
I2008
sI35046
I2008
sI61179
I2009
sI35050
I2008
sI35051
I2008
sI67820
I2010
sI67822
I2010
sI8805
I2004
sI35056
I2008
sI100593
I2012
sI35062
I2008
sI100605
I2012
sI100608
I2012
sI100614
I2012
sI35079
I2008
sI100616
I2012
sI76844
I2011
sI92106
I2011
sI104152
I2012
sI67859
I2010
sI67860
I2010
sI35093
I2008
sI67863
I2010
sI100633
I2012
sI100636
I2012
sI100637
I2012
sI100638
I2012
sI35105
I2008
sI100643
I2012
sI35108
I2008
sI67878
I2010
sI100647
I2012
sI5852
I2003
sI67883
I2010
sI100653
I2012
sI35118
I2008
sI67888
I2010
sI35121
I2008
sI100659
I2012
sI87774
I2011
sI98697
I2012
sI38623
I2008
sI35134
I2008
sI67903
I2010
sI67905
I2010
sI65931
I2010
sI67910
I2010
sI67911
I2010
sI67912
I2010
sI67913
I2010
sI67915
I2010
sI67916
I2010
sI35154
I2008
sI67923
I2010
sI100692
I2012
sI67925
I2010
sI35158
I2008
sI76857
I2011
sI100696
I2012
sI35166
I2008
sI71397
I2010
sI100704
I2012
sI35170
I2008
sI2406
I2000
sI35175
I2008
sI100715
I2012
sI100719
I2012
sI100720
I2012
sI35185
I2008
sI35186
I2008
sI35189
I2008
sI67958
I2010
sI2426
I2000
sI67963
I2010
sI67964
I2010
sI35197
I2008
sI67967
I2010
sI35200
I2008
sI2433
I2000
sI67972
I2010
sI35205
I2008
sI35207
I2008
sI100744
I2012
sI55021
I2009
sI100756
I2012
sI100760
I2012
sI100761
I2012
sI100762
I2012
sI2463
I2001
sI68000
I2010
sI68001
I2010
sI68004
I2010
sI68005
I2010
sI100774
I2012
sI100775
I2012
sI68009
I2010
sI2474
I2001
sI100780
I2012
sI100781
I2012
sI35246
I2008
sI100783
I2012
sI47001
I2008
sI35252
I2008
sI100795
I2012
sI35260
I2008
sI35263
I2008
sI35264
I2008
sI35265
I2008
sI35266
I2008
sI100806
I2012
sI2504
I2001
sI100809
I2012
sI100811
I2012
sI55731
I2009
sI100816
I2012
sI100818
I2012
sI100827
I2012
sI35292
I2008
sI35293
I2008
sI35296
I2008
sI44112
I2008
sI68067
I2010
sI68068
I2010
sI68069
I2010
sI68070
I2010
sI68073
I2010
sI35307
I2008
sI35319
I2008
sI35320
I2008
sI35321
I2008
sI68090
I2010
sI100859
I2012
sI68098
I2010
sI35331
I2008
sI35333
I2008
sI35334
I2008
sI35337
I2008
sI35338
I2008
sI35339
I2008
sI35341
I2008
sI35343
I2008
sI35344
I2008
sI2578
I2001
sI35350
I2008
sI68119
I2010
sI35354
I2008
sI35355
I2008
sI2588
I2001
sI68128
I2010
sI35363
I2008
sI35368
I2008
sI68137
I2010
sI35370
I2008
sI100907
I2012
sI67885
I2010
sI68141
I2010
sI68143
I2010
sI83456
I2011
sI68147
I2010
sI68148
I2010
sI68149
I2010
sI35382
I2008
sI68151
I2010
sI100924
I2012
sI68160
I2010
sI100932
I2012
sI35397
I2008
sI35399
I2008
sI35406
I2008
sI68177
I2010
sI76899
I2011
sI35413
I2008
sI68182
I2010
sI35415
I2008
sI68185
I2010
sI35418
I2008
sI35419
I2008
sI68188
I2010
sI35421
I2008
sI35423
I2008
sI2657
I2001
sI35426
I2008
sI35429
I2008
sI35430
I2008
sI35432
I2008
sI68202
I2010
sI35435
I2008
sI35439
I2008
sI35440
I2008
sI35442
I2008
sI100981
I2012
sI49599
I2009
sI89708
I2011
sI100991
I2012
sI2689
I2001
sI100997
I2012
sI100998
I2012
sI101008
I2012
sI76469
I2011
sI101010
I2012
sI82371
I2011
sI35484
I2008
sI101021
I2012
sI68254
I2010
sI68260
I2010
sI101031
I2012
sI35500
I2008
sI35502
I2008
sI101040
I2012
sI16840
I2006
sI44148
I2008
sI71814
I2010
sI101054
I2012
sI35522
I2008
sI68291
I2010
sI68293
I2010
sI68296
I2010
sI101071
I2012
sI93305
I2011
sI35544
I2008
sI109690
I2012
sI35550
I2008
sI35551
I2008
sI35552
I2008
sI35553
I2008
sI35554
I2008
sI35555
I2008
sI44829
I2008
sI35559
I2008
sI35562
I2008
sI68331
I2010
sI101101
I2012
sI68334
I2010
sI68337
I2010
sI68340
I2010
sI93310
I2011
sI101111
I2012
sI101113
I2012
sI93311
I2011
sI2813
I2001
sI101122
I2012
sI55083
I2009
sI101126
I2012
sI76473
I2011
sI101131
I2012
sI84111
I2011
sI109698
I2012
sI35602
I2008
sI55086
I2009
sI35607
I2008
sI35608
I2008
sI101147
I2012
sI68380
I2010
sI68381
I2010
sI68382
I2010
sI68385
I2010
sI35620
I2008
sI35621
I2008
sI2855
I2001
sI68392
I2010
sI35628
I2008
sI35632
I2008
sI101172
I2012
sI101173
I2012
sI35638
I2008
sI68410
I2010
sI71477
I2010
sI35649
I2008
sI101186
I2012
sI68419
I2010
sI68420
I2010
sI68421
I2010
sI35656
I2008
sI68425
I2010
sI35659
I2008
sI35660
I2008
sI35662
I2008
sI2895
I2001
sI35664
I2008
sI101201
I2012
sI35667
I2008
sI2901
I2001
sI78640
I2011
sI66020
I2010
sI101210
I2012
sI68445
I2010
sI101217
I2012
sI68452
I2010
sI35686
I2008
sI35688
I2008
sI68458
I2010
sI2924
I2001
sI35693
I2008
sI35695
I2008
sI68464
I2010
sI68466
I2010
sI76947
I2011
sI35700
I2008
sI68469
I2010
sI68475
I2010
sI35708
I2008
sI35709
I2008
sI35710
I2008
sI93333
I2011
sI101250
I2012
sI35717
I2008
sI68488
I2010
sI68489
I2010
sI68490
I2010
sI44183
I2008
sI68494
I2010
sI68495
I2010
sI68496
I2010
sI68500
I2010
sI68501
I2010
sI68503
I2010
sI35738
I2008
sI68507
I2010
sI101276
I2012
sI35741
I2008
sI35743
I2008
sI68512
I2010
sI68518
I2010
sI68522
I2010
sI68523
I2010
sI68524
I2010
sI68525
I2010
sI101294
I2012
sI101295
I2012
sI49651
I2009
sI68532
I2010
sI35766
I2008
sI68536
I2010
sI68537
I2010
sI101307
I2012
sI71498
I2010
sI35776
I2008
sI60576
I2009
sI35779
I2008
sI83026
I2011
sI35781
I2008
sI35782
I2008
sI60577
I2009
sI35784
I2008
sI35786
I2008
sI101326
I2012
sI68560
I2010
sI49656
I2009
sI71502
I2010
sI68566
I2010
sI101336
I2012
sI3038
I2001
sI68575
I2010
sI35809
I2008
sI35811
I2008
sI5969
I2003
sI35818
I2008
sI35827
I2008
sI35828
I2008
sI68598
I2010
sI35832
I2008
sI35834
I2008
sI76970
I2011
sI101374
I2012
sI101377
I2012
sI68610
I2010
sI101379
I2012
sI35845
I2008
sI101383
I2012
sI68616
I2010
sI68619
I2010
sI3085
I2001
sI68624
I2010
sI68625
I2010
sI35861
I2008
sI35862
I2008
sI35863
I2008
sI35864
I2008
sI101407
I2012
sI101411
I2012
sI68645
I2010
sI68646
I2010
sI68650
I2010
sI68651
I2010
sI68652
I2010
sI101421
I2012
sI68655
I2010
sI35888
I2008
sI101428
I2012
sI3126
I2001
sI101431
I2012
sI101433
I2012
sI35901
I2008
sI6651
I2003
sI68673
I2010
sI101447
I2012
sI35915
I2008
sI68684
I2010
sI68685
I2010
sI35918
I2008
sI68689
I2010
sI68690
I2010
sI35923
I2008
sI35924
I2008
sI35925
I2008
sI3158
I2001
sI3159
I2001
sI101464
I2012
sI35930
I2008
sI98831
I2012
sI35932
I2008
sI35933
I2008
sI35935
I2008
sI35936
I2008
sI93371
I2011
sI68718
I2010
sI35955
I2008
sI101492
I2012
sI35958
I2008
sI101497
I2012
sI68734
I2010
sI68735
I2010
sI101504
I2012
sI101505
I2012
sI101507
I2012
sI101508
I2012
sI3205
I2001
sI101510
I2012
sI101512
I2012
sI3209
I2001
sI82455
I2011
sI68748
I2010
sI101518
I2012
sI68753
I2010
sI35986
I2008
sI101523
I2012
sI41570
I2008
sI35990
I2008
sI48117
I2008
sI68764
I2010
sI35997
I2008
sI35998
I2008
sI35999
I2008
sI68772
I2010
sI68773
I2010
sI36008
I2008
sI36009
I2008
sI36011
I2008
sI101548
I2012
sI68785
I2010
sI36018
I2008
sI36019
I2008
sI68791
I2010
sI68794
I2010
sI82463
I2011
sI68796
I2010
sI68797
I2010
sI68800
I2010
sI36033
I2008
sI68803
I2010
sI36037
I2008
sI36038
I2008
sI101582
I2012
sI3283
I2001
sI68820
I2010
sI3286
I2001
sI68823
I2010
sI64486
I2009
sI68826
I2010
sI93391
I2011
sI36061
I2008
sI101599
I2012
sI101600
I2012
sI101603
I2012
sI36068
I2008
sI36069
I2008
sI68838
I2010
sI36071
I2008
sI68840
I2010
sI68843
I2010
sI101612
I2012
sI101613
I2012
sI36079
I2008
sI36092
I2008
sI101631
I2012
sI101634
I2012
sI36099
I2008
sI93948
I2011
sI71553
I2010
sI101642
I2012
sI36108
I2008
sI71554
I2010
sI101654
I2012
sI101660
I2012
sI36134
I2008
sI68905
I2010
sI3370
I2001
sI68907
I2010
sI36140
I2008
sI36141
I2008
sI82483
I2011
sI36149
I2008
sI104329
I2012
sI68920
I2010
sI68921
I2010
sI36154
I2008
sI60639
I2009
sI36156
I2008
sI36157
I2008
sI68926
I2010
sI93950
I2011
sI68930
I2010
sI36174
I2008
sI68944
I2010
sI68945
I2010
sI68947
I2010
sI36180
I2008
sI55182
I2009
sI101718
I2012
sI36183
I2008
sI36184
I2008
sI101722
I2012
sI101724
I2012
sI93951
I2011
sI101728
I2012
sI71568
I2010
sI101731
I2012
sI68965
I2010
sI36199
I2008
sI36203
I2008
sI36204
I2008
sI68974
I2010
sI68975
I2010
sI101746
I2012
sI36211
I2008
sI36212
I2008
sI101750
I2012
sI36216
I2008
sI3454
I2002
sI3455
I2002
sI36227
I2008
sI36231
I2008
sI3470
I2002
sI36239
I2008
sI3476
I2002
sI3481
I2002
sI101787
I2012
sI69020
I2010
sI77711
I2011
sI69026
I2010
sI101795
I2012
sI36263
I2008
sI36264
I2008
sI101801
I2012
sI82503
I2011
sI69036
I2010
sI69037
I2010
sI6045
I2003
sI16968
I2006
sI36274
I2008
sI93427
I2011
sI101815
I2012
sI101816
I2012
sI101818
I2012
sI101819
I2012
sI82506
I2011
sI101822
I2012
sI69056
I2010
sI101829
I2012
sI3528
I2002
sI98893
I2012
sI69072
I2010
sI36305
I2008
sI82512
I2011
sI36322
I2008
sI101860
I2012
sI69097
I2010
sI36331
I2008
sI36332
I2008
sI36334
I2008
sI36338
I2008
sI69107
I2010
sI36340
I2008
sI36347
I2008
sI36349
I2008
sI36351
I2008
sI3586
I2002
sI101891
I2012
sI36358
I2008
sI69127
I2010
sI36360
I2008
sI69131
I2010
sI69132
I2010
sI101901
I2012
sI36367
I2008
sI36368
I2008
sI101906
I2012
sI93443
I2011
sI36373
I2008
sI36376
I2008
sI101916
I2012
sI101917
I2012
sI101918
I2012
sI101919
I2012
sI101920
I2012
sI3622
I2002
sI98908
I2012
sI11527
I2005
sI69953
I2010
sI93448
I2011
sI36407
I2008
sI69177
I2010
sI16991
I2006
sI69182
I2010
sI36416
I2008
sI36417
I2008
sI36418
I2008
sI36420
I2008
sI69189
I2010
sI101958
I2012
sI36423
I2008
sI71045
I2010
sI101962
I2012
sI36427
I2008
sI101965
I2012
sI36431
I2008
sI101970
I2012
sI69204
I2010
sI69207
I2010
sI69208
I2010
sI36445
I2008
sI69214
I2010
sI66149
I2010
sI36448
I2008
sI69217
I2010
sI101986
I2012
sI3685
I2002
sI98919
I2012
sI69228
I2010
sI101999
I2012
sI69232
I2010
sI69233
I2010
sI69234
I2010
sI69236
I2010
sI36470
I2008
sI102007
I2012
sI44308
I2008
sI69243
I2010
sI69244
I2010
sI102013
I2012
sI36478
I2008
sI102015
I2012
sI72138
I2010
sI69249
I2010
sI36482
I2008
sI102019
I2012
sI71617
I2010
sI3720
I2002
sI36489
I2008
sI102026
I2012
sI60695
I2009
sI102031
I2012
sI102042
I2012
sI36511
I2008
sI36516
I2008
sI36517
I2008
sI36520
I2008
sI93468
I2011
sI36522
I2008
sI93469
I2011
sI3761
I2002
sI98931
I2012
sI3766
I2002
sI102072
I2012
sI102076
I2012
sI36541
I2008
sI3777
I2002
sI36551
I2008
sI3786
I2002
sI102103
I2012
sI36571
I2008
sI36576
I2008
sI36577
I2008
sI102114
I2012
sI36579
I2008
sI102117
I2012
sI102118
I2012
sI6097
I2003
sI102120
I2012
sI102121
I2012
sI36590
I2008
sI36597
I2008
sI36601
I2008
sI102138
I2012
sI36610
I2008
sI3844
I2002
sI3850
I2002
sI102156
I2012
sI102159
I2012
sI36628
I2008
sI36629
I2008
sI36631
I2008
sI3872
I2002
sI36644
I2008
sI36646
I2008
sI36647
I2008
sI36649
I2008
sI36650
I2008
sI36653
I2008
sI36655
I2008
sI36656
I2008
sI3893
I2002
sI3896
I2002
sI86661
I2011
sI36680
I2008
sI102222
I2012
sI36687
I2008
sI102225
I2012
sI72145
I2010
sI102227
I2012
sI102228
I2012
sI82574
I2011
sI36695
I2008
sI102232
I2012
sI102233
I2012
sI36700
I2008
sI102237
I2012
sI36702
I2008
sI82576
I2011
sI3938
I2002
sI102243
I2012
sI66193
I2010
sI36713
I2008
sI36720
I2008
sI36721
I2008
sI36722
I2008
sI36723
I2008
sI36724
I2008
sI69495
I2010
sI69497
I2010
sI102266
I2012
sI3963
I2002
sI102268
I2012
sI102269
I2012
sI8861
I2004
sI102278
I2012
sI3976
I2002
sI3978
I2002
sI36747
I2008
sI102284
I2012
sI36749
I2008
sI36750
I2008
sI36752
I2008
sI69521
I2010
sI102290
I2012
sI36755
I2008
sI69525
I2010
sI69526
I2010
sI36762
I2008
sI69532
I2010
sI3997
I2002
sI36768
I2008
sI36770
I2008
sI36771
I2008
sI102312
I2012
sI47052
I2008
sI36781
I2008
sI69550
I2010
sI36783
I2008
sI69552
I2010
sI102322
I2012
sI36787
I2008
sI102324
I2012
sI102325
I2012
sI4023
I2002
sI102333
I2012
sI102335
I2012
sI69570
I2010
sI102339
I2012
sI89607
I2011
sI69578
I2010
sI104439
I2012
sI36814
I2008
sI36821
I2008
sI102360
I2012
sI67785
I2010
sI60751
I2009
sI69598
I2010
sI4063
I2002
sI44368
I2008
sI102370
I2012
sI102373
I2012
sI36844
I2008
sI36846
I2008
sI69617
I2010
sI69620
I2010
sI69621
I2010
sI36855
I2008
sI36870
I2008
sI36871
I2008
sI69641
I2010
sI36876
I2008
sI9957
I2004
sI36886
I2008
sI69655
I2010
sI69657
I2010
sI36890
I2008
sI36891
I2008
sI4125
I2002
sI69665
I2010
sI36900
I2008
sI69669
I2010
sI98993
I2012
sI102443
I2012
sI102449
I2012
sI36915
I2008
sI69691
I2010
sI102460
I2012
sI102461
I2012
sI36930
I2008
sI36931
I2008
sI36932
I2008
sI69709
I2010
sI102478
I2012
sI36943
I2008
sI36945
I2008
sI69716
I2010
sI36949
I2008
sI36950
I2008
sI36951
I2008
sI36953
I2008
sI36954
I2008
sI36957
I2008
sI36961
I2008
sI36963
I2008
sI102500
I2012
sI102501
I2012
sI102502
I2012
sI102503
I2012
sI102507
I2012
sI102508
I2012
sI69741
I2010
sI102510
I2012
sI36976
I2008
sI36977
I2008
sI102519
I2012
sI102520
I2012
sI102521
I2012
sI69755
I2010
sI102524
I2012
sI36990
I2008
sI102527
I2012
sI102528
I2012
sI102530
I2012
sI36995
I2008
sI55318
I2009
sI4230
I2002
sI69768
I2010
sI69770
I2010
sI37003
I2008
sI37005
I2008
sI69775
I2010
sI6168
I2003
sI69778
I2010
sI69779
I2010
sI69780
I2010
sI102550
I2012
sI102551
I2012
sI82628
I2011
sI37020
I2008
sI37025
I2008
sI4258
I2002
sI37027
I2008
sI69797
I2010
sI69798
I2010
sI69799
I2010
sI102568
I2012
sI37034
I2008
sI37035
I2008
sI37037
I2008
sI37038
I2008
sI102575
I2012
sI4274
I2002
sI4275
I2002
sI69812
I2010
sI102581
I2012
sI37047
I2008
sI102584
I2012
sI37049
I2008
sI88095
I2011
sI37055
I2008
sI37056
I2008
sI37059
I2008
sI102600
I2012
sI37065
I2008
sI37066
I2008
sI69835
I2010
sI37068
I2008
sI37069
I2008
sI37070
I2008
sI37073
I2008
sI37074
I2008
sI69843
I2010
sI37076
I2008
sI102613
I2012
sI69847
I2010
sI72158
I2010
sI84045
I2011
sI102618
I2012
sI69852
I2010
sI69854
I2010
sI102623
I2012
sI37088
I2008
sI4322
I2002
sI102627
I2012
sI102629
I2012
sI102633
I2012
sI4331
I2002
sI7782
I2004
sI60797
I2009
sI69872
I2010
sI69873
I2010
sI69874
I2010
sI73250
I2010
sI37108
I2008
sI60798
I2009
sI102647
I2012
sI102648
I2012
sI37114
I2008
sI4348
I2002
sI99029
I2012
sI93568
I2011
sI37125
I2008
sI67795
I2010
sI93569
I2011
sI69897
I2010
sI4364
I2002
sI69904
I2010
sI69905
I2010
sI77187
I2011
sI102677
I2012
sI4377
I2002
sI87436
I2011
sI69920
I2010
sI69921
I2010
sI102690
I2012
sI69925
I2010
sI69930
I2010
sI102701
I2012
sI102711
I2012
sI69946
I2010
sI69948
I2010
sI69949
I2010
sI69950
I2010
sI102720
I2012
sI102721
I2012
sI4419
I2002
sI69959
I2010
sI4429
I2002
sI102734
I2012
sI37199
I2008
sI37200
I2008
sI88529
I2011
sI37203
I2008
sI4436
I2002
sI4437
I2002
sI4438
I2002
sI37209
I2008
sI4443
I2002
sI69980
I2010
sI37213
I2008
sI37214
I2008
sI4448
I2002
sI69985
I2010
sI4450
I2002
sI4451
I2002
sI102756
I2012
sI102762
I2012
sI102765
I2012
sI102766
I2012
sI102769
I2012
sI70003
I2010
sI66281
I2010
sI37241
I2008
sI37243
I2008
sI37248
I2008
sI37252
I2008
sI37253
I2008
sI37254
I2008
sI72164
I2010
sI102798
I2012
sI53713
I2009
sI70032
I2010
sI60824
I2009
sI37266
I2008
sI60825
I2009
sI102808
I2012
sI4509
I2002
sI70046
I2010
sI91805
I2011
sI102819
I2012
sI37284
I2008
sI37285
I2008
sI102823
I2012
sI70058
I2010
sI70059
I2010
sI37294
I2008
sI112537
I2012
sI4529
I2002
sI37299
I2008
sI102836
I2012
sI102837
I2012
sI70071
I2010
sI37306
I2008
sI102847
I2012
sI70080
I2010
sI70083
I2010
sI70088
I2010
sI70093
I2010
sI102864
I2012
sI37330
I2008
sI102867
I2012
sI37332
I2008
sI37333
I2008
sI70105
I2010
sI102875
I2012
sI91807
I2011
sI70117
I2010
sI88145
I2011
sI37353
I2008
sI37355
I2008
sI82685
I2011
sI37363
I2008
sI102901
I2012
sI70140
I2010
sI102909
I2012
sI102912
I2012
sI102916
I2012
sI4613
I2002
sI17153
I2006
sI102922
I2012
sI102927
I2012
sI37392
I2008
sI9974
I2004
sI37394
I2008
sI82691
I2011
sI4632
I2002
sI70169
I2010
sI37402
I2008
sI4637
I2002
sI4638
I2002
sI17157
I2006
sI4640
I2002
sI4641
I2002
sI4642
I2002
sI70180
I2010
sI17158
I2006
sI37414
I2008
sI55388
I2009
sI82695
I2011
sI4652
I2002
sI37422
I2008
sI70192
I2010
sI37426
I2008
sI102964
I2012
sI37429
I2008
sI70198
I2010
sI91810
I2011
sI102968
I2012
sI37433
I2008
sI37436
I2008
sI102976
I2012
sI4673
I2003
sI102980
I2012
sI37445
I2008
sI102985
I2012
sI93623
I2011
sI4686
I2003
sI4687
I2003
sI4688
I2003
sI4689
I2003
sI37458
I2008
sI102997
I2012
sI44473
I2008
sI37465
I2008
sI66319
I2010
sI37471
I2008
sI37472
I2008
sI37474
I2008
sI103012
I2012
sI37477
I2008
sI37478
I2008
sI4713
I2003
sI4714
I2003
sI70252
I2010
sI76536
I2011
sI8886
I2004
sI4196
I2002
sI103032
I2012
sI37497
I2008
sI70270
I2010
sI71787
I2010
sI82710
I2011
sI70279
I2010
sI103050
I2012
sI4749
I2003
sI70294
I2010
sI93636
I2011
sI8888
I2004
sI70317
I2010
sI70321
I2010
sI70322
I2010
sI4787
I2003
sI81994
I2011
sI37559
I2008
sI37562
I2008
sI37563
I2008
sI37566
I2008
sI37568
I2008
sI79902
I2011
sI103107
I2012
sI37577
I2008
sI37579
I2008
sI37580
I2008
sI37583
I2008
sI11726
I2005
sI70358
I2010
sI70361
I2010
sI77263
I2011
sI70366
I2010
sI37605
I2008
sI70380
I2010
sI93650
I2011
sI37616
I2008
sI37619
I2008
sI37620
I2008
sI37621
I2008
sI37622
I2008
sI37625
I2008
sI37629
I2008
sI37630
I2008
sI93653
I2011
sI37632
I2008
sI37633
I2008
sI37636
I2008
sI37639
I2008
sI37643
I2008
sI37644
I2008
sI37650
I2008
sI70420
I2010
sI70422
I2010
sI37660
I2008
sI4893
I2003
sI4895
I2003
sI70436
I2010
sI4901
I2003
sI70440
I2010
sI4905
I2003
sI4906
I2003
sI37676
I2008
sI4909
I2003
sI37682
I2008
sI103219
I2012
sI70452
I2010
sI70454
I2010
sI37687
I2008
sI70459
I2010
sI37692
I2008
sI37693
I2008
sI37694
I2008
sI37695
I2008
sI55812
I2009
sI37711
I2008
sI70482
I2010
sI37715
I2008
sI4948
I2003
sI37717
I2008
sI37722
I2008
sI70491
I2010
sI17210
I2006
sI70494
I2010
sI103263
I2012
sI103264
I2012
sI103265
I2012
sI44518
I2008
sI57705
I2009
sI103272
I2012
sI103273
I2012
sI37739
I2008
sI103276
I2012
sI37741
I2008
sI37742
I2008
sI70511
I2010
sI37744
I2008
sI44520
I2008
sI4978
I2003
sI4982
I2003
sI77289
I2011
sI37757
I2008
sI37758
I2008
sI37759
I2008
sI70528
I2010
sI37761
I2008
sI37762
I2008
sI37763
I2008
sI37764
I2008
sI37765
I2008
sI37767
I2008
sI37768
I2008
sI77292
I2011
sI37770
I2008
sI37772
I2008
sI37779
I2008
sI37780
I2008
sI5014
I2003
sI5015
I2003
sI70553
I2010
sI70554
I2010
sI5019
I2003
sI37791
I2008
sI70561
I2010
sI37801
I2008
sI70577
I2010
sI70579
I2010
sI37812
I2008
sI68909
I2010
sI70583
I2010
sI70601
I2010
sI37834
I2008
sI60919
I2009
sI70605
I2010
sI70606
I2010
sI70614
I2010
sI66384
I2010
sI97280
I2011
sI70631
I2010
sI103401
I2012
sI103402
I2012
sI103403
I2012
sI70643
I2010
sI103429
I2012
sI70663
I2010
sI70664
I2010
sI70665
I2010
sI70666
I2010
sI103438
I2012
sI71853
I2010
sI70674
I2010
sI70675
I2010
sI82777
I2011
sI103450
I2012
sI70683
I2010
sI70687
I2010
sI70688
I2010
sI53637
I2009
sI70699
I2010
sI103468
I2012
sI70702
I2010
sI70703
I2010
sI70704
I2010
sI70705
I2010
sI70707
I2010
sI70716
I2010
sI99170
I2012
sI60941
I2009
sI70743
I2010
sI5212
I2003
sI5213
I2003
sI70751
I2010
sI70752
I2010
sI99174
I2012
sI5225
I2003
sI82791
I2011
sI70774
I2010
sI70778
I2010
sI70783
I2010
sI39105
I2008
sI5257
I2003
sI92921
I2011
sI70796
I2010
sI70797
I2010
sI70798
I2010
sI70799
I2010
sI70803
I2010
sI70804
I2010
sI60953
I2009
sI70808
I2010
sI77338
I2011
sI70821
I2010
sI103590
I2012
sI70830
I2010
sI103599
I2012
sI70835
I2010
sI5303
I2003
sI5308
I2003
sI5309
I2003
sI103615
I2012
sI5316
I2003
sI5317
I2003
sI5320
I2003
sI77346
I2011
sI70863
I2010
sI70864
I2010
sI70865
I2010
sI70868
I2010
sI70870
I2010
sI103643
I2012
sI103648
I2012
sI103651
I2012
sI70884
I2010
sI103656
I2012
sI66737
I2010
sI70892
I2010
sI70893
I2010
sI5358
I2003
sI5360
I2003
sI70898
I2010
sI103669
I2012
sI78121
I2011
sI5372
I2003
sI103690
I2012
sI71896
I2010
sI77358
I2011
sI71897
I2010
sI5402
I2003
sI103715
I2012
sI5413
I2003
sI103720
I2012
sI103722
I2012
sI103723
I2012
sI103725
I2012
sI103727
I2012
sI5425
I2003
sI103730
I2012
sI5427
I2003
sI70965
I2010
sI70966
I2010
sI70968
I2010
sI70969
I2010
sI103739
I2012
sI38209
I2008
sI5442
I2003
sI38212
I2008
sI60982
I2009
sI55521
I2009
sI70987
I2010
sI38223
I2008
sI38229
I2008
sI38230
I2008
sI38231
I2008
sI38232
I2008
sI17295
I2006
sI71005
I2010
sI38238
I2008
sI71007
I2010
sI38241
I2008
sI93755
I2011
sI71013
I2010
sI71014
I2010
sI71016
I2010
sI60988
I2009
sI5482
I2003
sI5484
I2003
sI93757
I2011
sI71024
I2010
sI71026
I2010
sI38262
I2008
sI55529
I2009
sI5496
I2003
sI38270
I2008
sI66742
I2010
sI38273
I2008
sI38274
I2008
sI71043
I2010
sI71044
I2010
sI38277
I2008
sI82839
I2011
sI60994
I2009
sI71107
I2010
sI71058
I2010
sI71061
I2010
sI71063
I2010
sI71065
I2010
sI71070
I2010
sI38303
I2008
sI71074
I2010
sI71076
I2010
sI71079
I2010
sI71080
I2010
sI103849
I2012
sI103852
I2012
sI38326
I2008
sI71095
I2010
sI103864
I2012
sI71099
I2010
sI38332
I2008
sI71102
I2010
sI5567
I2003
sI71105
I2010
sI71106
I2010
sI5571
I2003
sI38344
I2008
sI71113
I2010
sI5579
I2003
sI71118
I2010
sI71122
I2010
sI71123
I2010
sI103893
I2012
sI71126
I2010
sI71127
I2010
sI71128
I2010
sI38362
I2008
sI38366
I2008
sI103903
I2012
sI38369
I2008
sI38370
I2008
sI47105
I2008
sI38375
I2008
sI38377
I2008
sI38381
I2008
sI38382
I2008
sI38383
I2008
sI5616
I2003
sI38385
I2008
sI5620
I2003
sI38389
I2008
sI71160
I2010
sI71161
I2010
sI71163
I2010
sI56926
I2009
sI66475
I2010
sI71174
I2010
sI71177
I2010
sI103948
I2012
sI103951
I2012
sI38419
I2008
sI71188
I2010
sI71189
I2010
sI28249
I2007
sI38425
I2008
sI5659
I2003
sI5660
I2003
sI38430
I2008
sI38431
I2008
sI71200
I2010
sI38435
I2008
sI71204
I2010
sI71205
I2010
sI38441
I2008
sI71210
I2010
sI5675
I2003
sI38445
I2008
sI5678
I2003
sI103986
I2012
sI103989
I2012
sI99125
I2012
sI103993
I2012
sI103994
I2012
sI71227
I2010
sI71228
I2010
sI103997
I2012
sI38462
I2008
sI103999
I2012
sI38464
I2008
sI38465
I2008
sI38466
I2008
sI38471
I2008
sI38473
I2008
sI38475
I2008
sI38481
I2008
sI38483
I2008
sI5717
I2003
sI71254
I2010
sI38489
I2008
sI71260
I2010
sI5725
I2003
sI104031
I2012
sI71264
I2010
sI5729
I2003
sI71266
I2010
sI71267
I2010
sI104036
I2012
sI71269
I2010
sI71270
I2010
sI71271
I2010
sI104042
I2012
sI38507
I2008
sI71276
I2010
sI104046
I2012
sI5743
I2003
sI77416
I2011
sI38514
I2008
sI71283
I2010
sI104055
I2012
sI39188
I2008
sI104058
I2012
sI104060
I2012
sI104061
I2012
sI104063
I2012
sI5761
I2003
sI38530
I2008
sI71301
I2010
sI71302
I2010
sI71303
I2010
sI38537
I2008
sI104074
I2012
sI71307
I2010
sI5773
I2003
sI104078
I2012
sI5776
I2003
sI38549
I2008
sI71322
I2010
sI38556
I2008
sI38557
I2008
sI38559
I2008
sI38561
I2008
sI71332
I2010
sI38565
I2008
sI38566
I2008
sI71335
I2010
sI104104
I2012
sI104105
I2012
sI104106
I2012
sI71340
I2010
sI71341
I2010
sI71343
I2010
sI38576
I2008
sI38577
I2008
sI5816
I2003
sI38594
I2008
sI38598
I2008
sI104137
I2012
sI71372
I2010
sI5837
I2003
sI71374
I2010
sI44664
I2008
sI71378
I2010
sI55587
I2009
sI38616
I2008
sI38617
I2008
sI38619
I2008
sI38620
I2008
sI44666
I2008
sI38622
I2008
sI104159
I2012
sI35111
I2008
sI38626
I2008
sI71395
I2010
sI104164
I2012
sI104165
I2012
sI104166
I2012
sI7833
I2004
sI104169
I2012
sI38634
I2008
sI5871
I2003
sI88577
I2011
sI71413
I2010
sI38648
I2008
sI38649
I2008
sI5883
I2003
sI71420
I2010
sI104190
I2012
sI104192
I2012
sI5889
I2003
sI71427
I2010
sI71428
I2010
sI71429
I2010
sI38662
I2008
sI71432
I2010
sI5897
I2003
sI71436
I2010
sI5903
I2003
sI71440
I2010
sI5906
I2003
sI5907
I2003
sI5909
I2003
sI71450
I2010
sI94034
I2011
sI38685
I2008
sI71458
I2010
sI71459
I2010
sI38692
I2008
sI71461
I2010
sI39217
I2008
sI71464
I2010
sI71465
I2010
sI104238
I2012
sI104239
I2012
sI5941
I2003
sI104246
I2012
sI77449
I2011
sI5944
I2003
sI95840
I2011
sI77450
I2011
sI71989
I2010
sI5957
I2003
sI71495
I2010
sI5962
I2003
sI5963
I2003
sI71500
I2010
sI29659
I2007
sI38737
I2008
sI5970
I2003
sI104275
I2012
sI5975
I2003
sI104280
I2012
sI5977
I2003
sI5978
I2003
sI71515
I2010
sI104285
I2012
sI38751
I2008
sI38752
I2008
sI38754
I2008
sI71523
I2010
sI104292
I2012
sI71528
I2010
sI71529
I2010
sI5995
I2003
sI4564
I2002
sI77458
I2011
sI104305
I2012
sI38772
I2008
sI71541
I2010
sI66537
I2010
sI71999
I2010
sI104318
I2012
sI104320
I2012
sI104321
I2012
sI104322
I2012
sI71555
I2010
sI71557
I2010
sI38790
I2008
sI38791
I2008
sI38793
I2008
sI71562
I2010
sI38795
I2008
sI71564
I2010
sI55618
I2009
sI71566
I2010
sI70033
I2010
sI71570
I2010
sI38803
I2008
sI71572
I2010
sI71573
I2010
sI71574
I2010
sI71579
I2010
sI6044
I2003
sI44698
I2008
sI71582
I2010
sI6048
I2003
sI104353
I2012
sI104355
I2012
sI6053
I2003
sI6054
I2003
sI104362
I2012
sI70034
I2010
sI38832
I2008
sI38833
I2008
sI94039
I2011
sI104371
I2012
sI104373
I2012
sI38840
I2008
sI104377
I2012
sI6076
I2003
sI104381
I2012
sI104385
I2012
sI38850
I2008
sI38851
I2008
sI104390
I2012
sI38858
I2008
sI71628
I2010
sI71629
I2010
sI38865
I2008
sI6103
I2003
sI6108
I2003
sI38879
I2008
sI71648
I2010
sI38881
I2008
sI71651
I2010
sI71653
I2010
sI71654
I2010
sI71655
I2010
sI104429
I2012
sI104431
I2012
sI38897
I2008
sI8933
I2004
sI38901
I2008
sI38903
I2008
sI38907
I2008
sI38909
I2008
sI104446
I2012
sI6145
I2003
sI38918
I2008
sI6155
I2003
sI6160
I2003
sI104468
I2012
sI104469
I2012
sI104470
I2012
sI6489
I2003
sI104472
I2012
sI38940
I2008
sI38943
I2008
sI38944
I2008
sI38947
I2008
sI38951
I2008
sI6184
I2003
sI71727
I2010
sI6192
I2003
sI6193
I2003
sI6194
I2003
sI71736
I2010
sI91259
I2011
sI71739
I2010
sI38972
I2008
sI38975
I2008
sI71749
I2010
sI71750
I2010
sI35123
I2008
sI71755
I2010
sI38989
I2008
sI39005
I2008
sI71775
I2010
sI6241
I2003
sI39011
I2008
sI71780
I2010
sI68949
I2010
sI71785
I2010
sI71786
I2010
sI6251
I2003
sI71790
I2010
sI71792
I2010
sI71795
I2010
sI71799
I2010
sI6265
I2003
sI39034
I2008
sI39036
I2008
sI71805
I2010
sI104581
I2012
sI39046
I2008
sI93890
I2011
sI39056
I2008
sI104596
I2012
sI66585
I2010
sI104600
I2012
sI98733
I2012
sI71837
I2010
sI71839
I2010
sI71842
I2010
sI6307
I2003
sI71844
I2010
sI39077
I2008
sI71847
I2010
sI50204
I2009
sI6315
I2003
sI104621
I2012
sI104623
I2012
sI6321
I2003
sI6323
I2003
sI82974
I2011
sI6327
I2003
sI71134
I2010
sI71865
I2010
sI39103
I2008
sI39104
I2008
sI104641
I2012
sI39107
I2008
sI104644
I2012
sI39110
I2008
sI104662
I2012
sI104664
I2012
sI6361
I2003
sI6362
I2003
sI71899
I2010
sI71900
I2010
sI39133
I2008
sI50213
I2009
sI71905
I2010
sI88443
I2011
sI71910
I2010
sI39144
I2008
sI39145
I2008
sI104686
I2012
sI88445
I2011
sI71920
I2010
sI93907
I2011
sI104692
I2012
sI88447
I2011
sI71932
I2010
sI39166
I2008
sI6399
I2003
sI70529
I2010
sI39174
I2008
sI71943
I2010
sI39176
I2008
sI104713
I2012
sI39179
I2008
sI39183
I2008
sI71955
I2010
sI104724
I2012
sI71961
I2010
sI71963
I2010
sI71964
I2010
sI39201
I2008
sI39203
I2008
sI104740
I2012
sI104741
I2012
sI104742
I2012
sI104747
I2012
sI104748
I2012
sI104749
I2012
sI104751
I2012
sI104752
I2012
sI104753
I2012
sI6452
I2003
sI39221
I2008
sI71990
I2010
sI39227
I2008
sI39228
I2008
sI71997
I2010
sI39231
I2008
sI39232
I2008
sI39233
I2008
sI39235
I2008
sI72005
I2010
sI39238
I2008
sI39240
I2008
sI6473
I2003
sI78482
I2011
sI6479
I2003
sI72020
I2010
sI72021
I2010
sI6487
I2003
sI39256
I2008
sI39257
I2008
sI72026
I2010
sI72027
I2010
sI72029
I2010
sI72030
I2010
sI72033
I2010
sI39266
I2008
sI72081
I2010
sI39274
I2008
sI6513
I2003
sI72050
I2010
sI72051
I2010
sI72055
I2010
sI72058
I2010
sI72061
I2010
sI39296
I2008
sI39298
I2008
sI39303
I2008
sI39304
I2008
sI72077
I2010
sI39310
I2008
sI6543
I2003
sI72080
I2010
sI6545
I2003
sI72082
I2010
sI76597
I2011
sI6555
I2003
sI6557
I2003
sI93936
I2011
sI6563
I2003
sI39335
I2008
sI6571
I2003
sI104876
I2012
sI6578
I2003
sI39350
I2008
sI104888
I2012
sI6591
I2003
sI39367
I2008
sI6602
I2003
sI72139
I2010
sI104909
I2012
sI104912
I2012
sI39377
I2008
sI39381
I2008
sI39385
I2008
sI104923
I2012
sI72157
I2010
sI104926
I2012
sI104927
I2012
sI104928
I2012
sI104929
I2012
sI104931
I2012
sI6628
I2003
sI39397
I2008
sI104934
I2012
sI39401
I2008
sI39403
I2008
sI39405
I2008
sI72174
I2010
sI104943
I2012
sI6640
I2003
sI6641
I2003
sI72179
I2010
sI72180
I2010
sI61182
I2009
sI104950
I2012
sI72185
I2010
sI61183
I2009
sI39420
I2008
sI39421
I2008
sI6654
I2003
sI66645
I2010
sI39425
I2008
sI66646
I2010
sI104966
I2012
sI6572
I2003
sI39434
I2008
sI104972
I2012
sI104973
I2012
sI72206
I2010
sI104976
I2012
sI83032
I2011
sI72210
I2010
sI39447
I2008
sI39452
I2008
sI66650
I2010
sI104992
I2012
sI104994
I2012
sI104995
I2012
sI39460
I2008
sI104997
I2012
sI39464
I2008
sI39465
I2008
sI39467
I2008
sI72236
I2010
sI105006
I2012
sI105007
I2012
sI105009
I2012
sI72242
I2010
sI105011
I2012
sI105012
I2012
sI105013
I2012
sI72246
I2010
sI105017
I2012
sI105019
I2012
sI72252
I2010
sI72257
I2010
sI105026
I2012
sI105033
I2012
sI39498
I2008
sI72270
I2010
sI7862
I2004
sI39352
I2008
sI72274
I2010
sI72275
I2010
sI82059
I2011
sI105045
I2012
sI39510
I2008
sI55737
I2009
sI72280
I2010
sI72281
I2010
sI72282
I2010
sI39515
I2008
sI105052
I2012
sI72285
I2010
sI105054
I2012
sI39520
I2008
sI39522
I2008
sI39525
I2008
sI105062
I2012
sI105065
I2012
sI39533
I2008
sI39535
I2008
sI39540
I2008
sI105077
I2012
sI66665
I2010
sI105080
I2012
sI105081
I2012
sI72317
I2010
sI105088
I2012
sI72323
I2010
sI72324
I2010
sI72325
I2010
sI72326
I2010
sI39559
I2008
sI72328
I2010
sI72329
I2010
sI72331
I2010
sI105100
I2012
sI105102
I2012
sI39568
I2008
sI77592
I2011
sI39576
I2008
sI39585
I2008
sI39586
I2008
sI39587
I2008
sI72357
I2010
sI39591
I2008
sI39592
I2008
sI44828
I2008
sI72362
I2010
sI6599
I2003
sI105132
I2012
sI39597
I2008
sI105134
I2012
sI39599
I2008
sI105136
I2012
sI105137
I2012
sI105138
I2012
sI105139
I2012
sI72372
I2010
sI72374
I2010
sI39607
I2008
sI72376
I2010
sI105149
I2012
sI39616
I2008
sI39624
I2008
sI72399
I2010
sI105170
I2012
sI105172
I2012
sI72405
I2010
sI72406
I2010
sI105176
I2012
sI39641
I2008
sI39642
I2008
sI39643
I2008
sI72416
I2010
sI52856
I2009
sI105186
I2012
sI105187
I2012
sI105188
I2012
sI6609
I2003
sI105192
I2012
sI105193
I2012
sI105194
I2012
sI105195
I2012
sI105196
I2012
sI105197
I2012
sI105198
I2012
sI39665
I2008
sI39669
I2008
sI72438
I2010
sI105213
I2012
sI105214
I2012
sI72149
I2010
sI72448
I2010
sI105226
I2012
sI39691
I2008
sI39692
I2008
sI105230
I2012
sI72464
I2010
sI39697
I2008
sI39698
I2008
sI105237
I2012
sI72470
I2010
sI72474
I2010
sI39708
I2008
sI72477
I2010
sI39710
I2008
sI7869
I2004
sI39718
I2008
sI6955
I2004
sI105262
I2012
sI72495
I2010
sI105264
I2012
sI105265
I2012
sI72498
I2010
sI72500
I2010
sI39390
I2008
sI72503
I2010
sI105276
I2012
sI39741
I2008
sI39744
I2008
sI105283
I2012
sI6984
I2004
sI72521
I2010
sI39754
I2008
sI105292
I2012
sI105294
I2012
sI6992
I2004
sI6993
I2004
sI39764
I2008
sI39765
I2008
sI105303
I2012
sI72536
I2010
sI105305
I2012
sI39772
I2008
sI39773
I2008
sI6629
I2003
sI72544
I2010
sI72545
I2010
sI44859
I2008
sI72548
I2010
sI39781
I2008
sI72550
I2010
sI72551
I2010
sI105321
I2012
sI72554
I2010
sI105323
I2012
sI105324
I2012
sI72558
I2010
sI72559
I2010
sI72566
I2010
sI39805
I2008
sI39806
I2008
sI39809
I2008
sI105346
I2012
sI105347
I2012
sI105349
I2012
sI39815
I2008
sI105361
I2012
sI39826
I2008
sI39829
I2008
sI39833
I2008
sI72602
I2010
sI39407
I2008
sI39837
I2008
sI72606
I2010
sI72607
I2010
sI39841
I2008
sI72610
I2010
sI72612
I2010
sI39846
I2008
sI72615
I2010
sI39853
I2008
sI7086
I2004
sI39855
I2008
sI105392
I2012
sI105393
I2012
sI72626
I2010
sI67886
I2010
sI105396
I2012
sI39868
I2008
sI72637
I2010
sI72638
I2010
sI72181
I2010
sI7106
I2004
sI105411
I2012
sI7111
I2004
sI39880
I2008
sI70069
I2010
sI105419
I2012
sI39884
I2008
sI39886
I2008
sI105424
I2012
sI72658
I2010
sI105427
I2012
sI39892
I2008
sI105431
I2012
sI105434
I2012
sI105440
I2012
sI39907
I2008
sI7140
I2004
sI72680
I2010
sI39913
I2008
sI7146
I2004
sI7149
I2004
sI7150
I2004
sI72189
I2010
sI72688
I2010
sI72690
I2010
sI7160
I2004
sI44884
I2008
sI72191
I2010
sI72700
I2010
sI105469
I2012
sI7169
I2004
sI72193
I2010
sI7179
I2004
sI7181
I2004
sI7182
I2004
sI72721
I2010
sI72723
I2010
sI105494
I2012
sI105496
I2012
sI105497
I2012
sI39962
I2008
sI39964
I2008
sI113961
I2012
sI7203
I2004
sI7204
I2004
sI105510
I2012
sI39975
I2008
sI105513
I2012
sI72747
I2010
sI72753
I2010
sI7221
I2004
sI7222
I2004
sI50356
I2009
sI72763
I2010
sI105539
I2012
sI40004
I2008
sI105541
I2012
sI72775
I2010
sI7253
I2004
sI89302
I2011
sI40026
I2008
sI105564
I2012
sI72799
I2010
sI72801
I2010
sI44902
I2008
sI40038
I2008
sI105576
I2012
sI40043
I2008
sI7276
I2004
sI72813
I2010
sI105582
I2012
sI105583
I2012
sI105585
I2012
sI105586
I2012
sI105587
I2012
sI40055
I2008
sI40057
I2008
sI7292
I2004
sI105598
I2012
sI7297
I2004
sI105606
I2012
sI40073
I2008
sI7306
I2004
sI7309
I2004
sI105615
I2012
sI72848
I2010
sI7313
I2004
sI7314
I2004
sI72851
I2010
sI7317
I2004
sI72855
I2010
sI77679
I2011
sI40095
I2008
sI72866
I2010
sI105636
I2012
sI72871
I2010
sI7342
I2004
sI40111
I2008
sI105648
I2012
sI72882
I2010
sI40119
I2008
sI40120
I2008
sI40121
I2008
sI105660
I2012
sI72895
I2010
sI72896
I2010
sI7362
I2004
sI72899
I2010
sI105670
I2012
sI40136
I2008
sI105674
I2012
sI105676
I2012
sI7373
I2004
sI105680
I2012
sI105681
I2012
sI105682
I2012
sI39459
I2008
sI7382
I2004
sI72228
I2010
sI105694
I2012
sI72229
I2010
sI40160
I2008
sI7393
I2004
sI105699
I2012
sI72935
I2010
sI72937
I2010
sI40170
I2008
sI40171
I2008
sI40173
I2008
sI40177
I2008
sI72949
I2010
sI105720
I2012
sI76626
I2011
sI42801
I2008
sI105731
I2012
sI105732
I2012
sI105733
I2012
sI105735
I2012
sI40200
I2008
sI105737
I2012
sI72970
I2010
sI105744
I2012
sI72977
I2010
sI105746
I2012
sI40217
I2008
sI40218
I2008
sI40219
I2008
sI40221
I2008
sI105758
I2012
sI72992
I2010
sI7458
I2004
sI105764
I2012
sI40229
I2008
sI7464
I2004
sI40236
I2008
sI40240
I2008
sI44936
I2008
sI73012
I2010
sI73017
I2010
sI7482
I2004
sI7484
I2004
sI105790
I2012
sI72245
I2010
sI40256
I2008
sI40257
I2008
sI73028
I2010
sI7494
I2004
sI105802
I2012
sI105805
I2012
sI105806
I2012
sI105808
I2012
sI73041
I2010
sI105811
I2012
sI40276
I2008
sI12174
I2005
sI40278
I2008
sI40279
I2008
sI40280
I2008
sI44943
I2008
sI73054
I2010
sI73055
I2010
sI105830
I2012
sI105831
I2012
sI105832
I2012
sI53716
I2009
sI40302
I2008
sI73072
I2010
sI40313
I2008
sI40318
I2008
sI77717
I2011
sI40321
I2008
sI105862
I2012
sI73095
I2010
sI73097
I2010
sI73098
I2010
sI105867
I2012
sI7567
I2004
sI73104
I2010
sI105876
I2012
sI105885
I2012
sI40359
I2008
sI105896
I2012
sI73138
I2010
sI73143
I2010
sI40382
I2008
sI73151
I2010
sI40384
I2008
sI40385
I2008
sI7618
I2004
sI40388
I2008
sI40399
I2008
sI40400
I2008
sI73169
I2010
sI40403
I2008
sI40404
I2008
sI73173
I2010
sI40409
I2008
sI55887
I2009
sI55902
I2009
sI40414
I2008
sI77733
I2011
sI7648
I2004
sI88657
I2011
sI73192
I2010
sI73193
I2010
sI73194
I2010
sI73198
I2010
sI40432
I2008
sI40433
I2008
sI7666
I2004
sI40436
I2008
sI40437
I2008
sI40439
I2008
sI73208
I2010
sI73210
I2010
sI73211
I2010
sI73213
I2010
sI40449
I2008
sI73221
I2010
sI7686
I2004
sI73225
I2010
sI40458
I2008
sI40460
I2008
sI73231
I2010
sI73233
I2010
sI73235
I2010
sI44974
I2008
sI7702
I2004
sI40475
I2008
sI40476
I2008
sI73246
I2010
sI40479
I2008
sI40480
I2008
sI40481
I2008
sI40482
I2008
sI72283
I2010
sI40485
I2008
sI73254
I2010
sI73255
I2010
sI73256
I2010
sI39516
I2008
sI73258
I2010
sI73259
I2010
sI73260
I2010
sI44978
I2008
sI73262
I2010
sI73263
I2010
sI73264
I2010
sI39518
I2008
sI73271
I2010
sI53723
I2009
sI73284
I2010
sI7751
I2004
sI40520
I2008
sI47188
I2008
sI7761
I2004
sI40530
I2008
sI77753
I2011
sI40536
I2008
sI40538
I2008
sI40541
I2008
sI73310
I2010
sI73312
I2010
sI72294
I2010
sI40550
I2008
sI72284
I2010
sI40561
I2008
sI73335
I2010
sI73337
I2010
sI73339
I2010
sI7804
I2004
sI73341
I2010
sI73342
I2010
sI73343
I2010
sI73346
I2010
sI7811
I2004
sI40581
I2008
sI73351
I2010
sI40585
I2008
sI40586
I2008
sI40587
I2008
sI40588
I2008
sI40589
I2008
sI40590
I2008
sI40591
I2008
sI40592
I2008
sI40593
I2008
sI40594
I2008
sI73364
I2010
sI88686
I2011
sI106135
I2012
sI73369
I2010
sI40603
I2008
sI77731
I2011
sI7839
I2004
sI40608
I2008
sI7841
I2004
sI40610
I2008
sI40611
I2008
sI40617
I2008
sI73386
I2010
sI88690
I2011
sI40624
I2008
sI73395
I2010
sI73396
I2010
sI106166
I2012
sI73399
I2010
sI73400
I2010
sI73401
I2010
sI40634
I2008
sI66847
I2010
sI73404
I2010
sI106173
I2012
sI73409
I2010
sI73412
I2010
sI106186
I2012
sI73420
I2010
sI7885
I2004
sI40655
I2008
sI7892
I2004
sI88697
I2011
sI40665
I2008
sI106203
I2012
sI40668
I2008
sI40671
I2008
sI73440
I2010
sI106211
I2012
sI7909
I2004
sI40680
I2008
sI106223
I2012
sI106224
I2012
sI106228
I2012
sI106238
I2012
sI7936
I2004
sI40707
I2008
sI73476
I2010
sI7941
I2004
sI40710
I2008
sI106247
I2012
sI106248
I2012
sI40716
I2008
sI40717
I2008
sI7950
I2004
sI34093
I2007
sI106258
I2012
sI73492
I2010
sI40725
I2008
sI69006
I2010
sI40727
I2008
sI40729
I2008
sI106273
I2012
sI12251
I2005
sI40744
I2008
sI72327
I2010
sI73516
I2010
sI7983
I2004
sI73520
I2010
sI73521
I2010
sI66867
I2010
sI40756
I2008
sI73527
I2010
sI106299
I2012
sI7997
I2004
sI50485
I2009
sI73537
I2010
sI106309
I2012
sI106312
I2012
sI98036
I2012
sI40785
I2008
sI73559
I2010
sI88719
I2011
sI106333
I2012
sI106334
I2012
sI40800
I2008
sI106337
I2012
sI106338
I2012
sI106339
I2012
sI8036
I2004
sI106342
I2012
sI73575
I2010
sI106344
I2012
sI73579
I2010
sI106349
I2012
sI73582
I2010
sI8047
I2004
sI40816
I2008
sI106354
I2012
sI40825
I2008
sI40826
I2008
sI66879
I2010
sI106364
I2012
sI40829
I2008
sI40830
I2008
sI40831
I2008
sI8064
I2004
sI73602
I2010
sI73607
I2010
sI8072
I2004
sI106378
I2012
sI8075
I2004
sI73613
I2010
sI45037
I2008
sI73621
I2010
sI40858
I2008
sI40859
I2008
sI40861
I2008
sI17733
I2006
sI40864
I2008
sI73638
I2010
sI106408
I2012
sI73643
I2010
sI106412
I2012
sI40877
I2008
sI40878
I2008
sI40880
I2008
sI50504
I2009
sI8115
I2004
sI40884
I2008
sI73653
I2010
sI40887
I2008
sI73656
I2010
sI73657
I2010
sI73658
I2010
sI73661
I2010
sI106430
I2012
sI40895
I2008
sI40897
I2008
sI106438
I2012
sI72353
I2010
sI106440
I2012
sI73673
I2010
sI73676
I2010
sI6818
I2003
sI40911
I2008
sI40914
I2008
sI106451
I2012
sI40920
I2008
sI40921
I2008
sI8156
I2004
sI73693
I2010
sI8158
I2004
sI106463
I2012
sI106464
I2012
sI106466
I2012
sI40931
I2008
sI40933
I2008
sI40934
I2008
sI77742
I2011
sI40937
I2008
sI73706
I2010
sI40940
I2008
sI73713
I2010
sI40948
I2008
sI72361
I2010
sI8191
I2004
sI77824
I2011
sI40963
I2008
sI73735
I2010
sI40971
I2008
sI106509
I2012
sI106510
I2012
sI40977
I2008
sI73746
I2010
sI73747
I2010
sI73748
I2011
sI106517
I2012
sI73753
I2011
sI73754
I2011
sI106526
I2012
sI77829
I2011
sI106528
I2012
sI73761
I2011
sI73762
I2011
sI106533
I2012
sI73766
I2011
sI67924
I2010
sI106537
I2012
sI73770
I2011
sI8245
I2004
sI73782
I2011
sI73785
I2011
sI73788
I2011
sI73790
I2011
sI73792
I2011
sI73794
I2011
sI77835
I2011
sI51558
I2009
sI73804
I2011
sI8269
I2004
sI73808
I2011
sI8274
I2004
sI8277
I2004
sI73825
I2011
sI8290
I2004
sI73828
I2011
sI73829
I2011
sI84293
I2011
sI73833
I2011
sI8299
I2004
sI8301
I2004
sI39613
I2008
sI73847
I2011
sI8320
I2004
sI8321
I2004
sI8322
I2004
sI73868
I2011
sI106641
I2012
sI8341
I2004
sI77849
I2011
sI8344
I2004
sI8351
I2004
sI106659
I2012
sI8356
I2004
sI73893
I2011
sI73896
I2011
sI73897
I2011
sI73898
I2011
sI91578
I2011
sI106669
I2012
sI106675
I2012
sI106676
I2012
sI77854
I2011
sI106678
I2012
sI106680
I2012
sI106683
I2012
sI73916
I2011
sI50549
I2009
sI41159
I2008
sI106696
I2012
sI106697
I2012
sI73934
I2011
sI106705
I2012
sI73938
I2011
sI110627
I2012
sI106708
I2012
sI56015
I2009
sI73949
I2011
sI41185
I2008
sI106722
I2012
sI97391
I2011
sI4645
I2002
sI50557
I2009
sI73968
I2011
sI41204
I2008
sI73973
I2011
sI106743
I2012
sI41211
I2008
sI73991
I2011
sI73995
I2011
sI73996
I2011
sI106765
I2012
sI73998
I2011
sI39640
I2008
sI106776
I2012
sI41243
I2008
sI74012
I2011
sI72410
I2010
sI8479
I2004
sI8482
I2004
sI8484
I2004
sI74027
I2011
sI8492
I2004
sI74034
I2011
sI93893
I2011
sI41272
I2008
sI74041
I2011
sI106810
I2012
sI106812
I2012
sI41277
I2008
sI41279
I2008
sI74048
I2011
sI41281
I2008
sI74052
I2011
sI106825
I2012
sI74058
I2011
sI53749
I2009
sI8525
I2004
sI8526
I2004
sI66957
I2010
sI106832
I2012
sI106834
I2012
sI106842
I2012
sI74076
I2011
sI74078
I2011
sI41311
I2008
sI106852
I2012
sI106853
I2012
sI8552
I2004
sI8553
I2004
sI8554
I2004
sI39656
I2008
sI8566
I2004
sI106872
I2012
sI9877
I2004
sI106876
I2012
sI116117
I2012
sI41344
I2008
sI8577
I2004
sI106883
I2012
sI41348
I2008
sI17814
I2006
sI8588
I2004
sI69027
I2010
sI41358
I2008
sI39661
I2008
sI106897
I2012
sI106898
I2012
sI39662
I2008
sI41368
I2008
sI88815
I2011
sI41373
I2008
sI106914
I2012
sI41383
I2008
sI41384
I2008
sI41385
I2008
sI106922
I2012
sI106923
I2012
sI41389
I2008
sI106927
I2012
sI41393
I2008
sI8626
I2004
sI106933
I2012
sI106936
I2012
sI106937
I2012
sI8635
I2004
sI8637
I2004
sI41406
I2008
sI106943
I2012
sI8647
I2004
sI106958
I2012
sI106959
I2012
sI106961
I2012
sI41427
I2008
sI41429
I2008
sI41434
I2008
sI41435
I2008
sI41437
I2008
sI46116
I2008
sI41442
I2008
sI8677
I2004
sI41446
I2008
sI8683
I2004
sI8684
I2004
sI8691
I2004
sI41460
I2008
sI89762
I2011
sI8699
I2004
sI107005
I2012
sI8707
I2004
sI41476
I2008
sI8711
I2004
sI8714
I2004
sI8715
I2004
sI8716
I2004
sI107025
I2012
sI107030
I2012
sI107033
I2012
sI107034
I2012
sI107035
I2012
sI107037
I2012
sI107038
I2012
sI74271
I2011
sI74275
I2011
sI74276
I2011
sI41509
I2008
sI41513
I2008
sI41514
I2008
sI8753
I2004
sI74290
I2011
sI41525
I2008
sI107064
I2012
sI53757
I2009
sI107068
I2012
sI72458
I2010
sI107070
I2012
sI8769
I2004
sI74306
I2011
sI72459
I2010
sI74310
I2011
sI8776
I2004
sI96950
I2011
sI74315
I2011
sI8782
I2004
sI72462
I2010
sI41563
I2008
sI107102
I2012
sI41567
I2008
sI41568
I2008
sI107106
I2012
sI107107
I2012
sI107108
I2012
sI107109
I2012
sI41574
I2008
sI74345
I2011
sI41578
I2008
sI74348
I2011
sI72466
I2010
sI107118
I2012
sI8815
I2004
sI8816
I2004
sI74354
I2011
sI74356
I2011
sI74357
I2011
sI107129
I2012
sI41594
I2008
sI41597
I2008
sI8830
I2004
sI72469
I2010
sI41602
I2008
sI8843
I2004
sI107148
I2012
sI41615
I2008
sI107153
I2012
sI50627
I2009
sI74388
I2011
sI8853
I2004
sI41628
I2008
sI41629
I2008
sI8862
I2004
sI107167
I2012
sI41635
I2008
sI41639
I2008
sI41640
I2008
sI74410
I2011
sI41643
I2008
sI74412
I2011
sI8880
I2004
sI41649
I2008
sI74420
I2011
sI72478
I2010
sI107190
I2012
sI83401
I2011
sI107192
I2012
sI74427
I2011
sI74428
I2011
sI74429
I2011
sI8894
I2004
sI74431
I2011
sI107200
I2012
sI8899
I2004
sI74436
I2011
sI74437
I2011
sI88865
I2011
sI74440
I2011
sI107209
I2012
sI41674
I2008
sI74443
I2011
sI107213
I2012
sI107214
I2012
sI107215
I2012
sI107217
I2012
sI107221
I2012
sI8918
I2004
sI8919
I2004
sI8921
I2004
sI17871
I2006
sI107229
I2012
sI92408
I2011
sI107236
I2012
sI73403
I2010
sI98499
I2012
sI107240
I2012
sI116178
I2012
sI107247
I2012
sI41712
I2008
sI88872
I2011
sI116179
I2012
sI110718
I2012
sI8952
I2004
sI74490
I2011
sI41723
I2008
sI8956
I2004
sI41727
I2008
sI74496
I2011
sI74499
I2011
sI74504
I2011
sI71419
I2010
sI74506
I2011
sI74508
I2011
sI41741
I2008
sI74511
I2011
sI74512
I2011
sI110723
I2012
sI8985
I2004
sI50650
I2009
sI72496
I2010
sI8997
I2004
sI8998
I2004
sI74539
I2011
sI74541
I2011
sI9016
I2004
sI41785
I2008
sI41788
I2008
sI41791
I2008
sI41794
I2008
sI41797
I2008
sI74568
I2011
sI74570
I2011
sI41809
I2008
sI9044
I2004
sI9045
I2004
sI9046
I2004
sI9048
I2004
sI77967
I2011
sI88891
I2011
sI74597
I2011
sI41831
I2008
sI41834
I2008
sI41837
I2008
sI74609
I2011
sI66861
I2010
sI74618
I2011
sI9084
I2004
sI9085
I2004
sI91060
I2011
sI88684
I2011
sI74626
I2011
sI71226
I2010
sI62497
I2009
sI41862
I2008
sI41867
I2008
sI74638
I2011
sI74643
I2011
sI74644
I2011
sI9113
I2004
sI41882
I2008
sI9115
I2004
sI41886
I2008
sI74657
I2011
sI41890
I2008
sI9123
I2004
sI74661
I2011
sI9126
I2004
sI9127
I2004
sI41896
I2008
sI74669
I2011
sI41915
I2008
sI62473
I2009
sI83446
I2011
sI41928
I2008
sI83447
I2011
sI41934
I2008
sI41935
I2008
sI41936
I2008
sI9169
I2004
sI41938
I2008
sI41939
I2008
sI41943
I2008
sI41945
I2008
sI74715
I2011
sI67066
I2010
sI56144
I2009
sI74722
I2011
sI116219
I2012
sI41957
I2008
sI85414
I2011
sI74729
I2011
sI74731
I2011
sI88914
I2011
sI74734
I2011
sI74740
I2011
sI56148
I2009
sI71230
I2010
sI41980
I2008
sI74749
I2011
sI56149
I2009
sI74752
I2011
sI41985
I2008
sI74754
I2011
sI41990
I2008
sI74760
I2011
sI9225
I2004
sI74762
I2011
sI41995
I2008
sI94381
I2011
sI74768
I2011
sI74770
I2011
sI42009
I2008
sI9245
I2004
sI9249
I2004
sI74788
I2011
sI72540
I2010
sI42028
I2008
sI42034
I2008
sI97419
I2011
sI74809
I2011
sI74810
I2011
sI74815
I2011
sI42048
I2008
sI42051
I2008
sI42054
I2008
sI42059
I2008
sI74828
I2011
sI42062
I2008
sI42065
I2008
sI9301
I2004
sI78009
I2011
sI74840
I2011
sI67087
I2010
sI74844
I2011
sI74850
I2011
sI42087
I2008
sI42092
I2008
sI64687
I2009
sI74862
I2011
sI94397
I2011
sI67091
I2010
sI39785
I2008
sI99860
I2012
sI74875
I2011
sI74879
I2011
sI72555
I2010
sI42117
I2008
sI78017
I2011
sI42124
I2008
sI88941
I2011
sI42129
I2008
sI42130
I2008
sI42131
I2008
sI42139
I2008
sI42146
I2008
sI9379
I2004
sI42148
I2008
sI42150
I2008
sI42155
I2008
sI42156
I2008
sI42159
I2008
sI74929
I2011
sI42163
I2008
sI99870
I2012
sI74938
I2011
sI74940
I2011
sI74943
I2011
sI42176
I2008
sI74947
I2011
sI74948
I2011
sI42186
I2008
sI9419
I2004
sI42188
I2008
sI74960
I2011
sI42194
I2008
sI42195
I2008
sI42196
I2008
sI42198
I2008
sI42201
I2008
sI42202
I2008
sI42203
I2008
sI42208
I2008
sI9442
I2004
sI42213
I2008
sI9447
I2004
sI107754
I2012
sI9452
I2004
sI37413
I2008
sI107767
I2012
sI107768
I2012
sI75001
I2011
sI107770
I2012
sI40687
I2008
sI42242
I2008
sI42245
I2008
sI42247
I2008
sI9480
I2004
sI116268
I2012
sI42250
I2008
sI107788
I2012
sI107789
I2012
sI9487
I2004
sI9488
I2004
sI9496
I2004
sI42269
I2008
sI75040
I2011
sI75041
I2011
sI75042
I2011
sI107811
I2012
sI42276
I2008
sI107813
I2012
sI107814
I2012
sI75047
I2011
sI75048
I2011
sI116274
I2012
sI72732
I2010
sI9522
I2004
sI50739
I2009
sI107829
I2012
sI107832
I2012
sI42300
I2008
sI42301
I2008
sI42302
I2008
sI75071
I2011
sI99894
I2012
sI42311
I2008
sI9544
I2004
sI42314
I2008
sI42316
I2008
sI42317
I2008
sI42318
I2008
sI107855
I2012
sI107856
I2012
sI107857
I2012
sI42322
I2008
sI9556
I2004
sI75095
I2011
sI42328
I2008
sI75100
I2011
sI94437
I2011
sI9573
I2004
sI107878
I2012
sI72593
I2010
sI75114
I2011
sI75115
I2011
sI75116
I2011
sI42350
I2008
sI75121
I2011
sI58149
I2009
sI107896
I2012
sI63605
I2009
sI107912
I2012
sI42377
I2008
sI107914
I2012
sI75147
I2011
sI42380
I2008
sI99906
I2012
sI9617
I2004
sI9621
I2004
sI9623
I2004
sI75160
I2011
sI9627
I2004
sI107933
I2012
sI83525
I2011
sI87611
I2011
sI9634
I2004
sI39835
I2008
sI86520
I2011
sI9640
I2004
sI9646
I2004
sI72605
I2010
sI107953
I2012
sI78067
I2011
sI42420
I2008
sI75191
I2011
sI75193
I2011
sI75194
I2011
sI107964
I2012
sI42429
I2008
sI75198
I2011
sI9663
I2004
sI75200
I2011
sI9665
I2004
sI75203
I2011
sI107972
I2012
sI72609
I2010
sI42442
I2008
sI12535
I2005
sI107983
I2012
sI107984
I2012
sI75219
I2011
sI107988
I2012
sI107989
I2012
sI107991
I2012
sI107992
I2012
sI107993
I2012
sI107994
I2012
sI107995
I2012
sI75228
I2011
sI107997
I2012
sI78075
I2011
sI56231
I2009
sI42480
I2008
sI75249
I2011
sI9716
I2004
sI9720
I2004
sI9722
I2004
sI42491
I2008
sI42494
I2008
sI75264
I2011
sI42499
I2008
sI42501
I2008
sI9738
I2004
sI99927
I2012
sI75276
I2011
sI75278
I2011
sI72621
I2010
sI99928
I2012
sI75292
I2011
sI42526
I2008
sI75295
I2011
sI75296
I2011
sI75298
I2011
sI75299
I2011
sI75300
I2011
sI9765
I2004
sI108071
I2012
sI108074
I2012
sI9777
I2004
sI75315
I2011
sI9781
I2004
sI108088
I2012
sI72628
I2010
sI75323
I2011
sI42556
I2008
sI108097
I2012
sI108099
I2012
sI108101
I2012
sI75335
I2011
sI108106
I2012
sI108108
I2012
sI75341
I2011
sI75343
I2011
sI108112
I2012
sI108113
I2012
sI108115
I2012
sI108117
I2012
sI9820
I2004
sI108125
I2012
sI42590
I2008
sI42593
I2008
sI108130
I2012
sI75366
I2011
sI7100
I2004
sI108139
I2012
sI81071
I2011
sI108142
I2012
sI42611
I2008
sI42612
I2008
sI75381
I2011
sI42619
I2008
sI9855
I2004
sI108160
I2012
sI42626
I2008
sI108165
I2012
sI42630
I2008
sI75400
I2011
sI78103
I2011
sI42636
I2008
sI75405
I2011
sI75406
I2011
sI42639
I2008
sI42641
I2008
sI108180
I2012
sI108181
I2012
sI75414
I2011
sI75422
I2011
sI75428
I2011
sI9895
I2004
sI94492
I2011
sI42669
I2008
sI96349
I2011
sI42671
I2008
sI7112
I2004
sI42674
I2008
sI42675
I2008
sI9909
I2004
sI9910
I2004
sI9911
I2004
sI75448
I2011
sI83572
I2011
sI42683
I2008
sI75452
I2011
sI75454
I2011
sI75455
I2011
sI9920
I2004
sI75459
I2011
sI73436
I2010
sI42696
I2008
sI75466
I2011
sI96350
I2011
sI110882
I2012
sI108239
I2012
sI75472
I2011
sI75477
I2011
sI75478
I2011
sI108247
I2012
sI75483
I2011
sI75485
I2011
sI75491
I2011
sI108261
I2012
sI9668
I2004
sI89041
I2011
sI108264
I2012
sI108266
I2012
sI108268
I2012
sI75503
I2011
sI108272
I2012
sI108273
I2012
sI108275
I2012
sI75510
I2011
sI42743
I2008
sI75512
I2011
sI42746
I2008
sI108284
I2012
sI75517
I2011
sI108289
I2012
sI9986
I2004
sI42759
I2008
sI9994
I2004
sI42766
I2008
sI75540
I2011
sI56281
I2009
sI50820
I2009
sI42779
I2008
sI10012
I2004
sI39898
I2008
sI10015
I2004
sI42785
I2008
sI42789
I2008
sI71257
I2010
sI42795
I2008
sI10030
I2004
sI108335
I2012
sI108337
I2012
sI108341
I2012
sI42806
I2008
sI42809
I2008
sI75578
I2011
sI42811
I2008
sI42812
I2008
sI108353
I2012
sI96354
I2011
sI42822
I2008
sI108360
I2012
sI108361
I2012
sI42826
I2008
sI94519
I2011
sI89058
I2011
sI42831
I2008
sI42834
I2008
sI10070
I2004
sI94521
I2011
sI75609
I2011
sI10074
I2004
sI78138
I2011
sI42846
I2008
sI75615
I2011
sI75617
I2011
sI42850
I2008
sI42852
I2008
sI10088
I2004
sI10091
I2004
sI10093
I2004
sI108398
I2012
sI108399
I2012
sI42882
I2008
sI42883
I2008
sI42884
I2008
sI95265
I2011
sI42886
I2008
sI42887
I2008
sI42888
I2008
sI42889
I2008
sI42890
I2008
sI42892
I2008
sI10125
I2004
sI10126
I2004
sI42895
I2008
sI42896
I2008
sI42897
I2008
sI108439
I2012
sI108446
I2012
sI10146
I2004
sI10147
I2004
sI10148
I2004
sI108454
I2012
sI108456
I2012
sI67228
I2010
sI108458
I2012
sI56307
I2009
sI10164
I2004
sI42937
I2008
sI108474
I2012
sI50847
I2009
sI10175
I2004
sI42944
I2008
sI108483
I2012
sI42948
I2008
sI42951
I2008
sI56311
I2009
sI108495
I2012
sI10197
I2004
sI88721
I2011
sI42975
I2008
sI42976
I2008
sI10209
I2004
sI108518
I2012
sI78161
I2011
sI108528
I2012
sI108533
I2012
sI10230
I2004
sI10231
I2004
sI108536
I2012
sI108537
I2012
sI108540
I2012
sI108541
I2012
sI81684
I2011
sI108545
I2012
sI108546
I2012
sI10248
I2004
sI10249
I2004
sI10258
I2004
sI43034
I2008
sI10272
I2004
sI67248
I2010
sI43043
I2008
sI43044
I2008
sI10277
I2004
sI108582
I2012
sI10280
I2004
sI110940
I2012
sI43051
I2008
sI10284
I2004
sI108593
I2012
sI43062
I2008
sI18100
I2006
sI108602
I2012
sI108605
I2012
sI10302
I2004
sI43075
I2008
sI108612
I2012
sI10310
I2004
sI90907
I2011
sI43081
I2008
sI43085
I2008
sI43087
I2008
sI43088
I2008
sI108632
I2012
sI108634
I2012
sI43101
I2008
sI43109
I2008
sI43110
I2008
sI43118
I2008
sI71268
I2010
sI108663
I2012
sI108664
I2012
sI108665
I2012
sI43131
I2008
sI43133
I2008
sI108670
I2012
sI72726
I2010
sI61804
I2009
sI108684
I2012
sI108687
I2012
sI108688
I2012
sI108697
I2012
sI7194
I2004
sI83653
I2011
sI43170
I2008
sI108708
I2012
sI48356
I2008
sI43175
I2008
sI43177
I2008
sI108716
I2012
sI108717
I2012
sI10414
I2004
sI108722
I2012
sI108727
I2012
sI10425
I2005
sI89119
I2011
sI7985
I2004
sI108734
I2012
sI10435
I2005
sI43205
I2008
sI43208
I2008
sI43210
I2008
sI10444
I2005
sI108750
I2012
sI108753
I2012
sI10450
I2005
sI108761
I2012
sI108762
I2012
sI10459
I2005
sI108764
I2012
sI108765
I2012
sI108766
I2012
sI108767
I2012
sI108768
I2012
sI18128
I2006
sI10467
I2005
sI72363
I2010
sI72743
I2010
sI67282
I2010
sI108790
I2012
sI10487
I2005
sI108793
I2012
sI108811
I2012
sI108819
I2012
sI10516
I2005
sI7988
I2004
sI10522
I2005
sI98552
I2012
sI108832
I2012
sI108837
I2012
sI108838
I2012
sI108840
I2012
sI108841
I2012
sI108842
I2012
sI69092
I2010
sI108846
I2012
sI108847
I2012
sI10547
I2005
sI10550
I2005
sI84523
I2011
sI72366
I2010
sI71275
I2010
sI10567
I2005
sI10568
I2005
sI10575
I2005
sI10576
I2005
sI89144
I2011
sI10583
I2005
sI10584
I2005
sI108891
I2012
sI108897
I2012
sI10594
I2005
sI108901
I2012
sI108902
I2012
sI108904
I2012
sI10609
I2005
sI108916
I2012
sI108921
I2012
sI100074
I2012
sI108930
I2012
sI108931
I2012
sI76164
I2011
sI108933
I2012
sI108935
I2012
sI76171
I2011
sI108947
I2012
sI10644
I2005
sI94617
I2011
sI10651
I2005
sI76188
I2011
sI7237
I2004
sI10656
I2005
sI10661
I2005
sI50547
I2009
sI10670
I2005
sI10671
I2005
sI108978
I2012
sI76215
I2011
sI108991
I2012
sI10689
I2005
sI10692
I2005
sI109006
I2012
sI76239
I2011
sI76240
I2011
sI109011
I2012
sI76247
I2011
sI109016
I2012
sI76250
I2011
sI67322
I2010
sI76267
I2011
sI10734
I2005
sI76271
I2011
sI10736
I2005
sI89171
I2011
sI10747
I2005
sI109052
I2012
sI76291
I2011
sI10756
I2005
sI43525
I2008
sI43527
I2008
sI78252
I2011
sI109072
I2012
sI10769
I2005
sI63644
I2009
sI87649
I2011
sI109080
I2012
sI43545
I2008
sI43547
I2008
sI43548
I2008
sI43550
I2008
sI43551
I2008
sI43552
I2008
sI10786
I2005
sI109091
I2012
sI109093
I2012
sI109095
I2012
sI109096
I2012
sI109097
I2012
sI82194
I2011
sI109100
I2012
sI109101
I2012
sI76336
I2011
sI10801
I2005
sI43570
I2008
sI10803
I2005
sI76350
I2011
sI109124
I2012
sI43591
I2008
sI43592
I2008
sI10826
I2005
sI43595
I2008
sI10828
I2005
sI109133
I2012
sI109135
I2012
sI109136
I2012
sI76371
I2011
sI83726
I2011
sI76374
I2011
sI43608
I2008
sI109151
I2012
sI10848
I2005
sI43617
I2008
sI78267
I2011
sI43620
I2008
sI76391
I2011
sI10857
I2005
sI43626
I2008
sI76398
I2011
sI76399
I2011
sI10864
I2005
sI109169
I2012
sI109172
I2012
sI109173
I2012
sI109178
I2012
sI109179
I2012
sI109180
I2012
sI109184
I2012
sI109186
I2012
sI109187
I2012
sI76423
I2011
sI10888
I2005
sI76425
I2011
sI76429
I2011
sI37461
I2008
sI76432
I2011
sI109202
I2012
sI10902
I2005
sI76439
I2011
sI17821
I2006
sI76442
I2011
sI10908
I2005
sI43678
I2008
sI43679
I2008
sI76453
I2011
sI43688
I2008
sI50972
I2009
sI109226
I2012
sI43691
I2008
sI43692
I2008
sI10925
I2005
sI43694
I2008
sI10927
I2005
sI10928
I2005
sI10929
I2005
sI43701
I2008
sI109238
I2012
sI76471
I2011
sI43704
I2008
sI109241
I2012
sI76474
I2011
sI43708
I2008
sI76477
I2011
sI76478
I2011
sI109247
I2012
sI109248
I2012
sI43718
I2008
sI10954
I2005
sI76494
I2011
sI76499
I2011
sI76500
I2011
sI7289
I2004
sI10970
I2005
sI10971
I2005
sI76508
I2011
sI43741
I2008
sI43742
I2008
sI76518
I2011
sI76519
I2011
sI10985
I2005
sI10986
I2005
sI43762
I2008
sI43764
I2008
sI10997
I2005
sI76534
I2011
sI76535
I2011
sI109304
I2012
sI109308
I2012
sI43774
I2008
sI109311
I2012
sI43783
I2008
sI76555
I2011
sI11022
I2005
sI43791
I2008
sI11024
I2005
sI11025
I2005
sI109331
I2012
sI43796
I2008
sI109333
I2012
sI109335
I2012
sI109336
I2012
sI73615
I2010
sI11038
I2005
sI11040
I2005
sI109348
I2012
sI11048
I2005
sI11050
I2005
sI109356
I2012
sI43821
I2008
sI43825
I2008
sI76594
I2011
sI76596
I2011
sI11061
I2005
sI7305
I2004
sI76600
I2011
sI11067
I2005
sI109374
I2012
sI109375
I2012
sI78304
I2011
sI43850
I2008
sI83767
I2011
sI109389
I2012
sI76622
I2011
sI109393
I2012
sI11090
I2005
sI56463
I2009
sI43875
I2008
sI76646
I2011
sI11117
I2005
sI109423
I2012
sI109425
I2012
sI109426
I2012
sI109427
I2012
sI83774
I2011
sI11127
I2005
sI47289
I2008
sI43898
I2008
sI43899
I2008
sI43902
I2008
sI109439
I2012
sI11137
I2005
sI109443
I2012
sI11145
I2005
sI76682
I2011
sI11147
I2005
sI76684
I2011
sI11149
I2005
sI11151
I2005
sI76689
I2011
sI76690
I2011
sI109462
I2012
sI43930
I2008
sI78319
I2011
sI76701
I2011
sI76702
I2011
sI11167
I2005
sI76706
I2011
sI109475
I2012
sI109476
I2012
sI109481
I2012
sI11184
I2005
sI109495
I2012
sI11192
I2005
sI109503
I2012
sI11202
I2005
sI11203
I2005
sI11204
I2005
sI76743
I2011
sI67404
I2010
sI11210
I2005
sI109516
I2012
sI76750
I2011
sI76753
I2011
sI76756
I2011
sI76762
I2011
sI83791
I2011
sI67408
I2010
sI76772
I2011
sI76774
I2011
sI109543
I2012
sI76778
I2011
sI89255
I2011
sI76781
I2011
sI11246
I2005
sI47293
I2008
sI109555
I2012
sI76788
I2011
sI11253
I2005
sI109558
I2012
sI76791
I2011
sI109562
I2012
sI94719
I2011
sI11261
I2005
sI11263
I2005
sI11265
I2005
sI11266
I2005
sI11268
I2005
sI76810
I2011
sI67415
I2010
sI11276
I2005
sI76819
I2011
sI76821
I2011
sI44054
I2008
sI34649
I2008
sI44059
I2008
sI44060
I2008
sI83802
I2011
sI44062
I2008
sI44063
I2008
sI76833
I2011
sI109602
I2012
sI109603
I2012
sI44068
I2008
sI94726
I2011
sI109606
I2012
sI11303
I2005
sI109608
I2012
sI98578
I2012
sI44075
I2008
sI109612
I2012
sI81120
I2011
sI44078
I2008
sI67421
I2010
sI76848
I2011
sI11315
I2005
sI11317
I2005
sI76854
I2011
sI11319
I2005
sI109625
I2012
sI11322
I2005
sI11326
I2005
sI89269
I2011
sI7351
I2004
sI11344
I2005
sI44113
I2008
sI44117
I2008
sI76886
I2011
sI44119
I2008
sI11352
I2005
sI11353
I2005
sI76897
I2011
sI11363
I2005
sI76900
I2011
sI76902
I2011
sI76903
I2011
sI76904
I2011
sI44137
I2008
sI76907
I2011
sI11373
I2005
sI11374
I2005
sI11375
I2005
sI11380
I2005
sI11382
I2005
sI83817
I2011
sI11384
I2005
sI11386
I2005
sI109692
I2012
sI109697
I2012
sI11394
I2005
sI11396
I2005
sI11397
I2005
sI44173
I2008
sI7363
I2004
sI76950
I2011
sI11415
I2005
sI76952
I2011
sI11417
I2005
sI44190
I2008
sI11424
I2005
sI11426
I2005
sI44197
I2008
sI67441
I2010
sI11432
I2005
sI11434
I2005
sI11435
I2005
sI89288
I2011
sI76982
I2011
sI76983
I2011
sI72906
I2010
sI11458
I2005
sI11473
I2005
sI77011
I2011
sI77012
I2011
sI77013
I2011
sI77017
I2011
sI11483
I2005
sI67450
I2010
sI77027
I2011
sI11495
I2005
sI67452
I2010
sI44266
I2008
sI68033
I2010
sI44275
I2008
sI11508
I2005
sI11509
I2005
sI44278
I2008
sI11511
I2005
sI51071
I2009
sI11519
I2005
sI77060
I2011
sI77061
I2011
sI116609
I2012
sI44296
I2008
sI44298
I2008
sI44299
I2008
sI109837
I2012
sI77070
I2011
sI44303
I2008
sI11536
I2005
sI109841
I2012
sI109844
I2012
sI109846
I2012
sI7385
I2004
sI11546
I2005
sI44315
I2008
sI77089
I2011
sI77090
I2011
sI11555
I2005
sI44324
I2008
sI44327
I2008
sI44330
I2008
sI44331
I2008
sI44332
I2008
sI109869
I2012
sI77102
I2011
sI77104
I2011
sI44337
I2008
sI77106
I2011
sI11572
I2005
sI40158
I2008
sI11574
I2005
sI11577
I2005
sI11580
I2005
sI77117
I2011
sI7392
I2004
sI11587
I2005
sI44359
I2008
sI44360
I2008
sI93132
I2011
sI109904
I2012
sI44370
I2008
sI40163
I2008
sI109908
I2012
sI11611
I2005
sI44388
I2008
sI77161
I2011
sI11629
I2005
sI44401
I2008
sI11636
I2005
sI7401
I2004
sI109944
I2012
sI97649
I2012
sI11647
I2005
sI109955
I2012
sI44420
I2008
sI109958
I2012
sI11659
I2005
sI44429
I2008
sI72941
I2010
sI83864
I2011
sI44438
I2008
sI11671
I2005
sI45636
I2008
sI44444
I2008
sI11678
I2005
sI109984
I2012
sI67483
I2010
sI44454
I2008
sI72945
I2010
sI44457
I2008
sI77226
I2011
sI77230
I2011
sI44468
I2008
sI44470
I2008
sI11703
I2005
sI11705
I2005
sI44475
I2008
sI44476
I2008
sI44478
I2008
sI44479
I2008
sI110016
I2012
sI44482
I2008
sI11716
I2005
sI44485
I2008
sI77255
I2011
sI77257
I2011
sI110027
I2012
sI110030
I2012
sI44495
I2008
sI44502
I2008
sI110042
I2012
sI44516
I2008
sI77285
I2011
sI11750
I2005
sI77287
I2011
sI110056
I2012
sI44521
I2008
sI11754
I2005
sI51111
I2009
sI44524
I2008
sI81135
I2011
sI44534
I2008
sI11767
I2005
sI44537
I2008
sI11771
I2005
sI69133
I2010
sI77319
I2011
sI65860
I2010
sI44557
I2008
sI44558
I2008
sI11792
I2005
sI11793
I2005
sI7427
I2004
sI83886
I2011
sI72964
I2010
sI44570
I2008
sI44571
I2008
sI44572
I2008
sI44573
I2008
sI44574
I2008
sI11807
I2005
sI77344
I2011
sI11810
I2005
sI77354
I2011
sI11821
I2005
sI11822
I2005
sI11825
I2005
sI40201
I2008
sI83893
I2011
sI11840
I2005
sI11845
I2005
sI11846
I2005
sI11849
I2005
sI44618
I2008
sI44622
I2008
sI44623
I2008
sI44630
I2008
sI11865
I2005
sI77402
I2011
sI44645
I2008
sI44648
I2008
sI77419
I2011
sI77425
I2011
sI44659
I2008
sI44662
I2008
sI110200
I2012
sI11898
I2005
sI44667
I2008
sI44668
I2008
sI11904
I2005
sI44673
I2008
sI11906
I2005
sI44676
I2008
sI110216
I2012
sI110217
I2012
sI110218
I2012
sI94829
I2011
sI110225
I2012
sI110226
I2012
sI110227
I2012
sI110228
I2012
sI110231
I2012
sI11928
I2005
sI110233
I2012
sI110234
I2012
sI44699
I2008
sI44700
I2008
sI44701
I2008
sI77472
I2011
sI77473
I2011
sI44707
I2008
sI44708
I2008
sI83910
I2011
sI113875
I2012
sI77479
I2011
sI44712
I2008
sI72989
I2010
sI87131
I2011
sI44725
I2008
sI11961
I2005
sI11965
I2005
sI11966
I2005
sI77505
I2011
sI77509
I2011
sI11974
I2005
sI11975
I2005
sI44747
I2008
sI45688
I2008
sI11988
I2005
sI44761
I2008
sI77530
I2011
sI98601
I2012
sI12001
I2005
sI12002
I2005
sI44774
I2008
sI12019
I2005
sI12021
I2005
sI44791
I2008
sI90964
I2011
sI83924
I2011
sI12027
I2005
sI77576
I2011
sI77577
I2011
sI12042
I2005
sI83929
I2011
sI44824
I2008
sI12058
I2005
sI12060
I2005
sI12061
I2005
sI44831
I2008
sI44832
I2008
sI44836
I2008
sI44838
I2008
sI44839
I2008
sI12073
I2005
sI44846
I2008
sI77619
I2011
sI44855
I2008
sI12090
I2005
sI12091
I2005
sI77628
I2011
sI12100
I2005
sI44876
I2008
sI92058
I2011
sI12111
I2005
sI12114
I2005
sI12116
I2005
sI12117
I2005
sI78479
I2011
sI44892
I2008
sI77661
I2011
sI51173
I2009
sI77664
I2011
sI12129
I2005
sI12134
I2005
sI12137
I2005
sI12138
I2005
sI77677
I2011
sI83330
I2011
sI44911
I2008
sI12144
I2005
sI12145
I2005
sI94867
I2011
sI77684
I2011
sI77686
I2011
sI78484
I2011
sI77690
I2011
sI77693
I2011
sI44928
I2008
sI44929
I2008
sI44931
I2008
sI44932
I2008
sI12165
I2005
sI12167
I2005
sI110472
I2012
sI51180
I2009
sI44938
I2008
sI77707
I2011
sI74602
I2011
sI110478
I2012
sI12175
I2005
sI77712
I2011
sI110481
I2012
sI110482
I2012
sI12179
I2005
sI110484
I2012
sI44949
I2008
sI78489
I2011
sI12187
I2005
sI44956
I2008
sI77725
I2011
sI77728
I2011
sI44961
I2008
sI77730
I2011
sI12195
I2005
sI110501
I2012
sI110502
I2012
sI44967
I2008
sI44972
I2008
sI110509
I2012
sI110510
I2012
sI110513
I2012
sI110514
I2012
sI44979
I2008
sI77748
I2011
sI110517
I2012
sI77752
I2011
sI110521
I2012
sI110525
I2012
sI110526
I2012
sI51189
I2009
sI12225
I2005
sI12228
I2005
sI44997
I2008
sI110536
I2012
sI77769
I2011
sI110538
I2012
sI12238
I2005
sI73037
I2010
sI12244
I2005
sI40270
I2008
sI77783
I2011
sI77785
I2011
sI110554
I2012
sI110555
I2012
sI110556
I2012
sI110558
I2012
sI110561
I2012
sI83963
I2011
sI7505
I2004
sI77801
I2011
sI110573
I2012
sI77807
I2011
sI45042
I2008
sI73044
I2010
sI77818
I2011
sI77822
I2011
sI77823
I2011
sI45056
I2008
sI45060
I2008
sI12293
I2005
sI110599
I2012
sI45067
I2008
sI12300
I2005
sI12304
I2005
sI12306
I2005
sI12307
I2005
sI12308
I2005
sI12309
I2005
sI12310
I2005
sI12311
I2005
sI12312
I2005
sI110617
I2012
sI12314
I2005
sI12315
I2005
sI12318
I2005
sI110623
I2012
sI12320
I2005
sI12323
I2005
sI12324
I2005
sI12326
I2005
sI12327
I2005
sI77864
I2011
sI45097
I2008
sI45098
I2008
sI83975
I2011
sI110637
I2012
sI77873
I2011
sI12343
I2005
sI76790
I2011
sI45114
I2008
sI77886
I2011
sI77887
I2011
sI110658
I2012
sI51211
I2009
sI77892
I2011
sI45131
I2008
sI96431
I2011
sI77902
I2011
sI12367
I2005
sI94904
I2011
sI45138
I2008
sI45753
I2008
sI12383
I2005
sI12385
I2005
sI73062
I2010
sI81156
I2011
sI86957
I2011
sI110706
I2012
sI34835
I2008
sI12406
I2005
sI12414
I2005
sI110722
I2012
sI12419
I2005
sI110725
I2012
sI110727
I2012
sI71337
I2010
sI110731
I2012
sI110734
I2012
sI12431
I2005
sI77968
I2011
sI12436
I2005
sI12437
I2005
sI12440
I2005
sI71338
I2010
sI77994
I2011
sI77995
I2011
sI110766
I2012
sI110777
I2012
sI110780
I2012
sI72430
I2010
sI110786
I2012
sI78022
I2011
sI110795
I2012
sI110797
I2012
sI78541
I2011
sI94926
I2011
sI78038
I2011
sI78039
I2011
sI110815
I2012
sI110820
I2012
sI110821
I2012
sI110822
I2012
sI110823
I2012
sI9051
I2004
sI110826
I2012
sI110828
I2012
sI110834
I2012
sI110835
I2012
sI7550
I2004
sI12534
I2005
sI100393
I2012
sI12536
I2005
sI12537
I2005
sI12539
I2005
sI78077
I2011
sI110846
I2012
sI110854
I2012
sI12551
I2005
sI62167
I2009
sI110861
I2012
sI110862
I2012
sI12563
I2005
sI110869
I2012
sI110870
I2012
sI73524
I2010
sI12578
I2005
sI12579
I2005
sI110886
I2012
sI110887
I2012
sI110889
I2012
sI51250
I2009
sI110896
I2012
sI110899
I2012
sI98621
I2012
sI12598
I2005
sI78136
I2011
sI78137
I2011
sI110906
I2012
sI78144
I2011
sI73099
I2010
sI110916
I2012
sI12619
I2005
sI12620
I2005
sI12621
I2005
sI12624
I2005
sI110929
I2012
sI78163
I2011
sI110939
I2012
sI12636
I2005
sI12637
I2005
sI12639
I2005
sI86620
I2011
sI78182
I2011
sI78183
I2011
sI12649
I2005
sI12650
I2005
sI8059
I2004
sI110957
I2012
sI110958
I2012
sI78191
I2011
sI78197
I2011
sI110966
I2012
sI110967
I2012
sI12664
I2005
sI110972
I2012
sI78205
I2011
sI110975
I2012
sI110976
I2012
sI12675
I2005
sI12680
I2005
sI12682
I2005
sI12684
I2005
sI78573
I2011
sI110993
I2012
sI12700
I2005
sI12703
I2005
sI12706
I2005
sI12708
I2005
sI8061
I2004
sI111020
I2012
sI40349
I2008
sI78256
I2011
sI78257
I2011
sI111026
I2012
sI12727
I2005
sI12729
I2005
sI111035
I2012
sI84042
I2011
sI83350
I2011
sI111055
I2012
sI84047
I2011
sI111071
I2012
sI111072
I2012
sI45844
I2008
sI111084
I2012
sI111357
I2012
sI78320
I2011
sI111101
I2012
sI111107
I2012
sI111109
I2012
sI78344
I2011
sI78348
I2011
sI78349
I2011
sI111118
I2012
sI78353
I2011
sI94979
I2011
sI111127
I2012
sI45592
I2008
sI111129
I2012
sI45594
I2008
sI78366
I2011
sI111135
I2012
sI45601
I2008
sI45604
I2008
sI111366
I2012
sI45606
I2008
sI45607
I2008
sI111145
I2012
sI78384
I2011
sI12850
I2005
sI111156
I2012
sI78391
I2011
sI45626
I2008
sI45629
I2008
sI12862
I2005
sI12863
I2005
sI84064
I2011
sI12866
I2005
sI12867
I2005
sI12868
I2005
sI78409
I2011
sI45643
I2008
sI45644
I2008
sI12883
I2005
sI78421
I2011
sI45659
I2008
sI12902
I2005
sI111207
I2012
sI12904
I2005
sI111210
I2012
sI45675
I2008
sI78610
I2011
sI78447
I2011
sI78611
I2011
sI12920
I2005
sI12921
I2005
sI111226
I2012
sI111229
I2012
sI111237
I2012
sI12940
I2005
sI12942
I2005
sI12943
I2005
sI111250
I2012
sI45716
I2008
sI78486
I2011
sI78487
I2011
sI45721
I2008
sI45722
I2008
sI45723
I2008
sI45724
I2008
sI78493
I2011
sI45729
I2008
sI12964
I2005
sI12969
I2005
sI12971
I2005
sI111279
I2012
sI45751
I2008
sI45752
I2008
sI34932
I2008
sI78524
I2011
sI12989
I2005
sI12990
I2005
sI34933
I2008
sI111296
I2012
sI12993
I2005
sI12994
I2005
sI45766
I2008
sI111305
I2012
sI111309
I2012
sI78543
I2011
sI45778
I2008
sI45779
I2008
sI45784
I2008
sI13019
I2005
sI13020
I2005
sI13022
I2005
sI111327
I2012
sI111331
I2012
sI111332
I2012
sI78570
I2011
sI111341
I2012
sI78574
I2011
sI45807
I2008
sI78578
I2011
sI45816
I2008
sI111353
I2012
sI111355
I2012
sI13053
I2005
sI111358
I2012
sI111359
I2012
sI111361
I2012
sI13062
I2005
sI111371
I2012
sI13068
I2005
sI13069
I2005
sI45842
I2008
sI45843
I2008
sI111380
I2012
sI111382
I2012
sI45847
I2008
sI78866
I2011
sI13081
I2005
sI13082
I2005
sI13083
I2005
sI45853
I2008
sI45857
I2008
sI100486
I2012
sI13098
I2005
sI111403
I2012
sI78637
I2011
sI111408
I2012
sI13107
I2005
sI73182
I2010
sI13111
I2005
sI13113
I2005
sI80089
I2011
sI78651
I2011
sI78654
I2011
sI45888
I2008
sI51339
I2009
sI45892
I2008
sI45896
I2008
sI111433
I2012
sI111435
I2012
sI45906
I2008
sI45907
I2008
sI45909
I2008
sI45913
I2008
sI45915
I2008
sI45918
I2008
sI78687
I2011
sI44083
I2008
sI78690
I2011
sI111461
I2012
sI111464
I2012
sI111465
I2012
sI111466
I2012
sI13163
I2005
sI13164
I2005
sI111470
I2012
sI111471
I2012
sI111474
I2012
sI88820
I2011
sI13175
I2005
sI111483
I2012
sI13182
I2005
sI45956
I2008
sI45957
I2008
sI78726
I2011
sI45961
I2008
sI45962
I2008
sI89778
I2011
sI45964
I2008
sI45965
I2008
sI13198
I2005
sI78735
I2011
sI45968
I2008
sI78737
I2011
sI97550
I2011
sI78739
I2011
sI111509
I2012
sI78743
I2011
sI13209
I2005
sI13214
I2005
sI45988
I2008
sI111525
I2012
sI111528
I2012
sI13226
I2005
sI13227
I2005
sI13229
I2005
sI111534
I2012
sI13233
I2005
sI46003
I2008
sI46004
I2008
sI78774
I2011
sI13129
I2005
sI78778
I2011
sI78779
I2011
sI13244
I2005
sI111549
I2012
sI111550
I2012
sI7669
I2004
sI78784
I2011
sI13249
I2005
sI13251
I2005
sI111559
I2012
sI46024
I2008
sI13257
I2005
sI46027
I2008
sI46029
I2008
sI46030
I2008
sI13263
I2005
sI78800
I2011
sI111570
I2012
sI78806
I2011
sI78807
I2011
sI46041
I2008
sI78814
I2011
sI111584
I2012
sI13281
I2005
sI111586
I2012
sI65910
I2010
sI46057
I2008
sI46058
I2008
sI46065
I2008
sI78834
I2011
sI46067
I2008
sI46071
I2008
sI78842
I2011
sI78844
I2011
sI78845
I2011
sI7681
I2004
sI81187
I2011
sI13323
I2005
sI111631
I2012
sI46096
I2008
sI46098
I2008
sI46100
I2008
sI78869
I2011
sI78681
I2011
sI13338
I2005
sI13340
I2005
sI13342
I2005
sI46115
I2008
sI13348
I2005
sI95068
I2011
sI111659
I2012
sI111666
I2012
sI78899
I2011
sI78900
I2011
sI78686
I2011
sI78902
I2011
sI13367
I2005
sI13370
I2005
sI78907
I2011
sI13373
I2005
sI78910
I2011
sI13377
I2005
sI87613
I2011
sI78689
I2011
sI111688
I2012
sI78924
I2011
sI13390
I2005
sI78929
I2011
sI111700
I2012
sI78934
I2011
sI111704
I2012
sI7695
I2004
sI13406
I2005
sI111716
I2012
sI46183
I2008
sI13419
I2005
sI46188
I2008
sI13421
I2005
sI111732
I2012
sI111738
I2012
sI111741
I2012
sI13438
I2005
sI7701
I2004
sI13440
I2005
sI13442
I2005
sI78699
I2011
sI111752
I2012
sI111753
I2012
sI13450
I2005
sI78989
I2011
sI111758
I2012
sI46223
I2008
sI111760
I2012
sI46225
I2008
sI46226
I2008
sI46227
I2008
sI79002
I2011
sI35013
I2008
sI73243
I2010
sI79015
I2011
sI13480
I2005
sI13481
I2005
sI79018
I2011
sI46256
I2008
sI111794
I2012
sI111796
I2012
sI83375
I2011
sI111798
I2012
sI111799
I2012
sI46264
I2008
sI46265
I2008
sI7711
I2004
sI79037
I2011
sI71231
I2010
sI46277
I2008
sI79047
I2011
sI111816
I2012
sI79049
I2011
sI62327
I2009
sI13516
I2005
sI46285
I2008
sI13519
I2005
sI13522
I2005
sI111828
I2012
sI46293
I2008
sI13530
I2005
sI100559
I2012
sI13532
I2005
sI13536
I2005
sI79076
I2011
sI46311
I2008
sI13545
I2005
sI111850
I2012
sI46316
I2008
sI79085
I2011
sI111856
I2012
sI13555
I2005
sI13556
I2005
sI79093
I2011
sI40489
I2008
sI13566
I2005
sI79103
I2011
sI53917
I2009
sI111876
I2012
sI13574
I2005
sI111880
I2012
sI13577
I2005
sI46350
I2008
sI56877
I2009
sI46352
I2008
sI46353
I2008
sI6999
I2004
sI78724
I2011
sI79131
I2011
sI13604
I2005
sI13610
I2005
sI111917
I2012
sI111920
I2012
sI13617
I2005
sI79154
I2011
sI79155
I2011
sI13620
I2005
sI79157
I2011
sI79160
I2011
sI6652
I2003
sI79173
I2011
sI89655
I2011
sI13644
I2005
sI13653
I2005
sI88836
I2011
sI13656
I2005
sI9326
I2004
sI79199
I2011
sI79200
I2011
sI111971
I2012
sI79208
I2011
sI13674
I2005
sI13675
I2005
sI13679
I2005
sI13680
I2005
sI111986
I2012
sI111997
I2012
sI13697
I2005
sI13698
I2005
sI98762
I2012
sI91309
I2011
sI79801
I2011
sI78745
I2011
sI112025
I2012
sI13722
I2005
sI112032
I2012
sI79267
I2011
sI79269
I2011
sI13735
I2005
sI13736
I2005
sI13738
I2005
sI13745
I2005
sI112051
I2012
sI13752
I2005
sI79291
I2011
sI79292
I2011
sI112066
I2012
sI112069
I2012
sI13773
I2005
sI112081
I2012
sI79318
I2011
sI84217
I2011
sI79320
I2011
sI79331
I2011
sI56913
I2009
sI13801
I2005
sI7762
I2004
sI112112
I2012
sI13224
I2005
sI13815
I2005
sI13817
I2005
sI112125
I2012
sI89685
I2011
sI73566
I2010
sI79365
I2011
sI88842
I2011
sI45998
I2008
sI79386
I2011
sI79387
I2011
sI79389
I2011
sI79390
I2011
sI13855
I2005
sI13856
I2005
sI13858
I2005
sI112167
I2012
sI13864
I2005
sI73309
I2010
sI13872
I2005
sI13875
I2005
sI13877
I2005
sI13878
I2005
sI13879
I2005
sI13880
I2005
sI79419
I2011
sI13884
I2005
sI79424
I2011
sI79426
I2011
sI112195
I2012
sI112197
I2012
sI13897
I2005
sI79434
I2011
sI13899
I2005
sI79436
I2011
sI84237
I2011
sI13905
I2005
sI79444
I2011
sI112215
I2012
sI79455
I2011
sI13920
I2005
sI13921
I2005
sI112226
I2012
sI112228
I2012
sI112229
I2012
sI112230
I2012
sI112232
I2012
sI79471
I2011
sI112240
I2012
sI79474
I2011
sI79476
I2011
sI46014
I2008
sI13946
I2005
sI73570
I2010
sI112260
I2012
sI79493
I2011
sI46727
I2008
sI46729
I2008
sI79500
I2011
sI79502
I2011
sI79503
I2011
sI84248
I2011
sI13976
I2005
sI84250
I2011
sI79525
I2011
sI46759
I2008
sI86665
I2011
sI93212
I2011
sI35101
I2008
sI46770
I2008
sI46771
I2008
sI35102
I2008
sI14011
I2005
sI112321
I2012
sI96112
I2011
sI46788
I2008
sI112326
I2012
sI14025
I2005
sI79562
I2011
sI76846
I2011
sI51490
I2009
sI14033
I2005
sI35107
I2008
sI67876
I2010
sI46812
I2008
sI79581
I2011
sI79582
I2011
sI14047
I2005
sI87758
I2011
sI14049
I2005
sI79587
I2011
sI79589
I2011
sI46822
I2008
sI112361
I2012
sI46826
I2008
sI14059
I2005
sI46828
I2008
sI13266
I2005
sI14062
I2005
sI46833
I2008
sI112370
I2012
sI14069
I2005
sI14070
I2005
sI14071
I2005
sI14072
I2005
sI79615
I2011
sI46848
I2008
sI112391
I2012
sI58299
I2009
sI112399
I2012
sI46865
I2008
sI14100
I2005
sI14101
I2005
sI46872
I2008
sI71393
I2010
sI46876
I2008
sI112413
I2012
sI46878
I2008
sI46879
I2008
sI14112
I2005
sI112419
I2012
sI14117
I2005
sI46886
I2008
sI100657
I2012
sI79659
I2011
sI14126
I2005
sI112432
I2012
sI46897
I2008
sI14131
I2005
sI112436
I2012
sI79669
I2011
sI79670
I2011
sI73353
I2010
sI112440
I2012
sI112443
I2012
sI79678
I2011
sI13280
I2005
sI14146
I2005
sI14147
I2005
sI14148
I2005
sI112456
I2012
sI7820
I2004
sI46925
I2008
sI46926
I2008
sI7821
I2004
sI14160
I2005
sI112465
I2012
sI89742
I2011
sI112471
I2012
sI112472
I2012
sI46937
I2008
sI46939
I2008
sI79709
I2011
sI46943
I2008
sI14176
I2005
sI76851
I2011
sI46946
I2008
sI79721
I2011
sI57211
I2009
sI79728
I2011
sI46961
I2008
sI46300
I2008
sI79733
I2011
sI79736
I2011
sI112506
I2012
sI74509
I2011
sI112510
I2012
sI68123
I2010
sI14222
I2005
sI112528
I2012
sI14226
I2005
sI112531
I2012
sI112532
I2012
sI112534
I2012
sI46999
I2008
sI14233
I2005
sI14234
I2005
sI47003
I2008
sI112540
I2012
sI112541
I2012
sI47006
I2008
sI112543
I2012
sI14241
I2005
sI79778
I2011
sI78833
I2011
sI112553
I2012
sI51527
I2009
sI47021
I2008
sI47023
I2008
sI112569
I2012
sI79804
I2011
sI79806
I2011
sI79807
I2011
sI73376
I2010
sI14283
I2005
sI112588
I2012
sI79821
I2011
sI47056
I2008
sI47057
I2008
sI47060
I2008
sI14293
I2005
sI47062
I2008
sI47063
I2008
sI47064
I2008
sI14301
I2005
sI79845
I2011
sI14310
I2005
sI79848
I2011
sI79849
I2011
sI14314
I2005
sI14315
I2005
sI67922
I2010
sI112622
I2012
sI112623
I2012
sI112624
I2012
sI112625
I2012
sI51539
I2009
sI14324
I2005
sI79863
I2011
sI79864
I2011
sI35156
I2008
sI79866
I2011
sI14332
I2005
sI14334
I2005
sI112641
I2012
sI47106
I2008
sI47107
I2008
sI112644
I2012
sI112645
I2012
sI14342
I2005
sI79880
I2011
sI112649
I2012
sI112650
I2012
sI79885
I2011
sI79886
I2011
sI112659
I2012
sI47124
I2008
sI61853
I2009
sI47127
I2008
sI47130
I2008
sI47134
I2008
sI14372
I2005
sI14374
I2005
sI79914
I2011
sI112683
I2012
sI47149
I2008
sI79919
I2011
sI112690
I2012
sI112695
I2012
sI14395
I2005
sI112701
I2012
sI79936
I2011
sI79939
I2011
sI47172
I2008
sI47173
I2008
sI47178
I2008
sI79948
I2011
sI62477
I2009
sI60492
I2009
sI7864
I2004
sI112724
I2012
sI14422
I2005
sI46095
I2008
sI112734
I2012
sI14431
I2005
sI112736
I2012
sI112737
I2012
sI112739
I2012
sI35174
I2008
sI47206
I2008
sI67943
I2010
sI47213
I2008
sI40637
I2008
sI14448
I2005
sI68131
I2010
sI47218
I2008
sI112755
I2012
sI47221
I2008
sI14454
I2005
sI47227
I2008
sI14461
I2005
sI112766
I2012
sI14464
I2005
sI14465
I2005
sI112771
I2012
sI14469
I2005
sI14473
I2005
sI47243
I2008
sI47249
I2008
sI14485
I2005
sI80024
I2011
sI47257
I2008
sI80026
I2011
sI80029
I2011
sI80030
I2011
sI80031
I2011
sI47265
I2008
sI80034
I2011
sI80037
I2011
sI47270
I2008
sI80042
I2011
sI14510
I2005
sI95261
I2011
sI43795
I2008
sI80051
I2011
sI112820
I2012
sI47285
I2008
sI47286
I2008
sI47288
I2008
sI112825
I2012
sI112826
I2012
sI47291
I2008
sI47292
I2008
sI112829
I2012
sI112830
I2012
sI100725
I2012
sI112832
I2012
sI95264
I2011
sI112837
I2012
sI80070
I2011
sI14535
I2005
sI51575
I2009
sI95266
I2011
sI47314
I2008
sI47315
I2008
sI57223
I2009
sI80086
I2011
sI51577
I2009
sI80088
I2011
sI14553
I2005
sI80090
I2011
sI80091
I2011
sI67962
I2010
sI47326
I2008
sI14562
I2005
sI14564
I2005
sI47333
I2008
sI47336
I2008
sI47337
I2008
sI112874
I2012
sI14571
I2005
sI14572
I2005
sI47342
I2008
sI80112
I2011
sI47347
I2008
sI47349
I2008
sI14588
I2005
sI14590
I2005
sI47362
I2008
sI112905
I2012
sI14603
I2005
sI112910
I2012
sI80145
I2011
sI84355
I2011
sI14613
I2005
sI14617
I2005
sI14618
I2005
sI14619
I2005
sI112924
I2012
sI47397
I2008
sI14630
I2005
sI112935
I2012
sI14633
I2005
sI13362
I2005
sI47406
I2008
sI47407
I2008
sI14640
I2005
sI67976
I2010
sI47415
I2008
sI47416
I2008
sI80185
I2011
sI112958
I2012
sI14655
I2005
sI80192
I2011
sI14657
I2005
sI47426
I2008
sI80195
I2011
sI14660
I2005
sI47430
I2008
sI80199
I2011
sI14667
I2005
sI14673
I2005
sI47443
I2008
sI47445
I2008
sI47446
I2008
sI80216
I2011
sI117135
I2012
sI112992
I2012
sI14690
I2005
sI80230
I2011
sI47466
I2008
sI47467
I2008
sI113004
I2012
sI80239
I2011
sI47473
I2008
sI35590
I2008
sI14713
I2005
sI47483
I2008
sI113020
I2012
sI113021
I2012
sI47496
I2008
sI14729
I2005
sI14730
I2005
sI113037
I2012
sI80271
I2011
sI113041
I2012
sI80274
I2011
sI80275
I2011
sI113051
I2012
sI113052
I2012
sI50683
I2009
sI113056
I2012
sI113060
I2012
sI113061
I2012
sI113063
I2012
sI113064
I2012
sI47529
I2008
sI47530
I2008
sI95303
I2011
sI113074
I2012
sI113077
I2012
sI47543
I2008
sI47544
I2008
sI67999
I2010
sI113086
I2012
sI113089
I2012
sI14788
I2005
sI51617
I2009
sI113098
I2012
sI113100
I2012
sI47571
I2008
sI14805
I2005
sI47574
I2008
sI47575
I2008
sI47576
I2008
sI80345
I2011
sI14811
I2005
sI14812
I2005
sI14813
I2005
sI14814
I2005
sI84389
I2011
sI14817
I2005
sI80355
I2011
sI68006
I2010
sI113126
I2012
sI80359
I2011
sI80362
I2011
sI68007
I2010
sI47599
I2008
sI47600
I2008
sI14833
I2005
sI14834
I2005
sI113142
I2012
sI13396
I2005
sI14843
I2005
sI14844
I2005
sI80382
I2011
sI14854
I2005
sI47623
I2008
sI14859
I2005
sI113164
I2012
sI47629
I2008
sI47630
I2008
sI113168
I2012
sI13400
I2005
sI47635
I2008
sI47636
I2008
sI47637
I2008
sI80411
I2011
sI113181
I2012
sI80414
I2011
sI47649
I2008
sI80420
I2011
sI47654
I2008
sI51633
I2009
sI80426
I2011
sI113195
I2012
sI113196
I2012
sI113198
I2012
sI47664
I2008
sI14897
I2005
sI99173
I2012
sI8134
I2004
sI80443
I2011
sI80444
I2011
sI14909
I2005
sI14916
I2005
sI14917
I2005
sI14918
I2005
sI14920
I2005
sI14921
I2005
sI47690
I2008
sI47691
I2008
sI14926
I2005
sI113232
I2012
sI80467
I2011
sI92152
I2011
sI51641
I2009
sI47706
I2008
sI14940
I2005
sI14942
I2005
sI80480
I2011
sI35259
I2008
sI113252
I2012
sI47719
I2008
sI80489
I2011
sI80491
I2011
sI80492
I2011
sI80496
I2011
sI14962
I2005
sI92153
I2011
sI47732
I2008
sI47734
I2008
sI47735
I2008
sI47737
I2008
sI47738
I2008
sI80509
I2011
sI113279
I2012
sI100801
I2012
sI80522
I2011
sI7959
I2004
sI14988
I2005
sI78957
I2011
sI113297
I2012
sI80532
I2011
sI113303
I2012
sI80536
I2011
sI55056
I2009
sI47775
I2008
sI113319
I2012
sI47785
I2008
sI47786
I2008
sI51655
I2009
sI15024
I2005
sI35272
I2008
sI80562
I2011
sI80563
I2011
sI80565
I2011
sI15031
I2005
sI15033
I2005
sI113339
I2012
sI113343
I2012
sI47808
I2008
sI80577
I2011
sI15042
I2005
sI15043
I2005
sI73505
I2010
sI80584
I2011
sI80588
I2011
sI15054
I2005
sI51661
I2009
sI113363
I2012
sI80596
I2011
sI80597
I2011
sI15063
I2005
sI80600
I2011
sI78970
I2011
sI47838
I2008
sI80608
I2011
sI80611
I2011
sI80613
I2011
sI15078
I2005
sI113384
I2012
sI47855
I2008
sI84435
I2011
sI46206
I2008
sI15094
I2005
sI15095
I2005
sI80632
I2011
sI76479
I2011
sI84437
I2011
sI113408
I2012
sI15105
I2005
sI15106
I2005
sI18902
I2006
sI47879
I2008
sI47880
I2008
sI7980
I2004
sI113420
I2012
sI47885
I2008
sI47887
I2008
sI80656
I2011
sI62595
I2009
sI47892
I2008
sI15127
I2005
sI80667
I2011
sI47901
I2008
sI80671
I2011
sI7984
I2004
sI47911
I2008
sI47913
I2008
sI15148
I2005
sI18909
I2006
sI80689
I2011
sI47922
I2008
sI73523
I2010
sI47925
I2008
sI47926
I2008
sI80696
I2011
sI15161
I2005
sI47930
I2008
sI47931
I2008
sI80700
I2011
sI47933
I2008
sI113470
I2012
sI113471
I2012
sI47937
I2008
sI113475
I2012
sI15173
I2005
sI80711
I2011
sI15182
I2005
sI80719
I2011
sI15185
I2005
sI55062
I2009
sI113491
I2012
sI80725
I2011
sI113498
I2012
sI15197
I2005
sI15198
I2005
sI80735
I2011
sI13456
I2005
sI15203
I2005
sI80740
I2011
sI80742
I2011
sI47975
I2008
sI15211
I2005
sI15212
I2005
sI89917
I2011
sI15216
I2005
sI80753
I2011
sI47986
I2008
sI15219
I2005
sI15221
I2005
sI15228
I2005
sI84458
I2011
sI80768
I2011
sI80769
I2011
sI80770
I2011
sI80771
I2011
sI48005
I2008
sI48006
I2008
sI80775
I2011
sI48008
I2008
sI48009
I2008
sI113548
I2012
sI80781
I2011
sI48016
I2008
sI48020
I2008
sI48022
I2008
sI48024
I2008
sI15258
I2005
sI48028
I2008
sI15263
I2005
sI15264
I2005
sI84464
I2011
sI113571
I2012
sI80804
I2011
sI48037
I2008
sI113577
I2012
sI48043
I2008
sI15278
I2005
sI15280
I2005
sI48051
I2008
sI15287
I2005
sI80825
I2011
sI80828
I2011
sI80829
I2011
sI48063
I2008
sI48067
I2008
sI48068
I2008
sI113606
I2012
sI15305
I2005
sI15308
I2005
sI48081
I2008
sI48082
I2008
sI15315
I2005
sI80853
I2011
sI15318
I2005
sI84473
I2011
sI48088
I2008
sI80857
I2011
sI80858
I2011
sI15323
I2005
sI80860
I2011
sI48093
I2008
sI80862
I2011
sI113633
I2012
sI51707
I2009
sI113637
I2012
sI48105
I2008
sI48106
I2008
sI80880
I2011
sI113653
I2012
sI48121
I2008
sI48122
I2008
sI48123
I2008
sI48125
I2008
sI113663
I2012
sI48130
I2008
sI48134
I2008
sI48135
I2008
sI80911
I2011
sI80914
I2011
sI48156
I2008
sI48163
I2008
sI48166
I2008
sI48168
I2008
sI80937
I2011
sI48173
I2008
sI8029
I2004
sI80944
I2011
sI80945
I2011
sI48179
I2008
sI113716
I2012
sI40798
I2008
sI2569
I2001
sI46260
I2008
sI80954
I2011
sI113724
I2012
sI80958
I2011
sI8032
I2004
sI48194
I2008
sI48195
I2008
sI79030
I2011
sI73569
I2010
sI51724
I2009
sI113738
I2012
sI46263
I2008
sI40802
I2008
sI113745
I2012
sI113746
I2012
sI48211
I2008
sI113750
I2012
sI48216
I2008
sI48217
I2008
sI48218
I2008
sI80987
I2011
sI113762
I2012
sI53980
I2009
sI80997
I2011
sI113773
I2012
sI81006
I2011
sI48239
I2008
sI113778
I2012
sI48243
I2008
sI113784
I2012
sI81019
I2011
sI81021
I2011
sI81022
I2011
sI84501
I2011
sI81025
I2011
sI81026
I2011
sI48259
I2008
sI81028
I2011
sI68118
I2010
sI81032
I2011
sI51735
I2009
sI48269
I2008
sI48270
I2008
sI40813
I2008
sI48273
I2008
sI48280
I2008
sI48282
I2008
sI68122
I2010
sI113824
I2012
sI113826
I2012
sI100891
I2012
sI113828
I2012
sI113829
I2012
sI48299
I2008
sI48303
I2008
sI48304
I2008
sI62664
I2009
sI48306
I2008
sI48310
I2008
sI48316
I2008
sI48317
I2008
sI81090
I2011
sI81093
I2011
sI81096
I2011
sI62668
I2009
sI48331
I2008
sI100899
I2012
sI113876
I2012
sI48341
I2008
sI81110
I2011
sI73593
I2010
sI48345
I2008
sI113882
I2012
sI113883
I2012
sI113884
I2012
sI73594
I2010
sI113888
I2012
sI113889
I2012
sI113890
I2012
sI113891
I2012
sI113892
I2012
sI73596
I2010
sI48363
I2008
sI48365
I2008
sI73597
I2010
sI81136
I2011
sI48377
I2008
sI8063
I2004
sI48380
I2008
sI35371
I2008
sI113924
I2012
sI48392
I2008
sI68140
I2010
sI48394
I2008
sI48395
I2008
sI48399
I2008
sI72535
I2010
sI113949
I2012
sI15646
I2005
sI81183
I2011
sI13531
I2005
sI81188
I2011
sI81190
I2011
sI15657
I2005
sI48426
I2008
sI48427
I2008
sI81200
I2011
sI48435
I2008
sI81204
I2011
sI95454
I2011
sI81213
I2011
sI113983
I2012
sI81218
I2011
sI48451
I2008
sI15686
I2005
sI48457
I2008
sI15691
I2005
sI48461
I2008
sI48463
I2008
sI114001
I2012
sI15700
I2005
sI114008
I2012
sI15707
I2005
sI48478
I2008
sI48479
I2008
sI114019
I2012
sI15718
I2005
sI15720
I2005
sI68156
I2010
sI81258
I2011
sI81260
I2011
sI48494
I2008
sI48496
I2008
sI48497
I2008
sI114034
I2012
sI48500
I2008
sI15736
I2005
sI81273
I2011
sI114042
I2012
sI114043
I2012
sI114044
I2012
sI81277
I2011
sI81278
I2011
sI83450
I2011
sI48519
I2008
sI114060
I2012
sI81294
I2011
sI48533
I2008
sI15768
I2005
sI114074
I2012
sI48539
I2008
sI48541
I2008
sI48542
I2008
sI81313
I2011
sI81314
I2011
sI81315
I2011
sI81319
I2011
sI81321
I2011
sI81326
I2011
sI114102
I2012
sI79092
I2011
sI114106
I2012
sI81339
I2011
sI114108
I2012
sI81343
I2011
sI15811
I2005
sI48581
I2008
sI114125
I2012
sI48595
I2008
sI15829
I2005
sI48598
I2008
sI48600
I2008
sI15833
I2005
sI62714
I2009
sI48607
I2009
sI15840
I2005
sI114146
I2012
sI114147
I2012
sI114151
I2012
sI15849
I2005
sI114154
I2012
sI114156
I2012
sI15853
I2005
sI15854
I2005
sI15855
I2005
sI114160
I2012
sI79102
I2011
sI81401
I2011
sI81402
I2011
sI62719
I2009
sI15868
I2005
sI81405
I2011
sI81406
I2011
sI15871
I2005
sI81408
I2011
sI79104
I2011
sI15874
I2005
sI15876
I2005
sI114183
I2012
sI68183
I2010
sI48653
I2009
sI8109
I2004
sI81424
I2011
sI48659
I2009
sI48661
I2009
sI48663
I2009
sI15901
I2005
sI15902
I2005
sI114207
I2012
sI100955
I2012
sI48678
I2009
sI48679
I2009
sI48681
I2009
sI48686
I2009
sI81462
I2011
sI8116
I2004
sI98732
I2012
sI48701
I2009
sI81470
I2011
sI48703
I2009
sI15936
I2005
sI48707
I2009
sI48708
I2009
sI48710
I2009
sI81481
I2011
sI81482
I2011
sI81484
I2011
sI81485
I2011
sI81486
I2011
sI81488
I2011
sI114257
I2012
sI15954
I2005
sI15955
I2005
sI81493
I2011
sI15958
I2005
sI114263
I2012
sI114264
I2012
sI15961
I2005
sI15962
I2005
sI15964
I2005
sI15965
I2005
sI81502
I2011
sI81510
I2011
sI79121
I2011
sI114282
I2012
sI81518
I2011
sI48753
I2009
sI114290
I2012
sI81524
I2011
sI40894
I2008
sI48759
I2009
sI114296
I2012
sI48761
I2009
sI48762
I2009
sI48769
I2009
sI95461
I2011
sI48774
I2009
sI81544
I2011
sI81545
I2011
sI48778
I2009
sI48779
I2009
sI48787
I2009
sI48790
I2009
sI79129
I2011
sI114329
I2012
sI81563
I2011
sI81565
I2011
sI48798
I2009
sI20174
I2006
sI48803
I2009
sI40902
I2008
sI48808
I2009
sI48809
I2009
sI50726
I2009
sI114352
I2012
sI114353
I2012
sI81588
I2011
sI81590
I2011
sI8137
I2004
sI81592
I2011
sI48825
I2009
sI114362
I2012
sI81596
I2011
sI114365
I2012
sI81599
I2011
sI81600
I2011
sI81601
I2011
sI81602
I2011
sI81603
I2011
sI81608
I2011
sI8140
I2004
sI81611
I2011
sI48846
I2009
sI81617
I2011
sI16090
I2005
sI48863
I2009
sI68219
I2010
sI48869
I2009
sI81638
I2011
sI81645
I2011
sI81647
I2011
sI48884
I2009
sI48889
I2009
sI48893
I2009
sI49426
I2009
sI48902
I2009
sI81674
I2011
sI48916
I2009
sI81686
I2011
sI81687
I2011
sI48920
I2009
sI81690
I2011
sI81693
I2011
sI2693
I2001
sI48930
I2009
sI48932
I2009
sI48933
I2009
sI48936
I2009
sI81710
I2011
sI48943
I2009
sI81715
I2011
sI48948
I2009
sI81717
I2011
sI81718
I2011
sI48952
I2009
sI79156
I2011
sI81722
I2011
sI40927
I2008
sI81725
I2011
sI81730
I2011
sI81732
I2011
sI16200
I2005
sI16201
I2005
sI40930
I2008
sI48978
I2009
sI16214
I2006
sI81751
I2011
sI48984
I2009
sI51855
I2009
sI16227
I2006
sI80851
I2011
sI81771
I2011
sI49005
I2009
sI49006
I2009
sI49008
I2009
sI19091
I2006
sI73705
I2010
sI81786
I2011
sI16251
I2006
sI81788
I2011
sI49024
I2009
sI49026
I2009
sI81795
I2011
sI49032
I2009
sI8172
I2004
sI49034
I2009
sI16277
I2006
sI16281
I2006
sI81818
I2011
sI16283
I2006
sI16284
I2006
sI95558
I2011
sI49064
I2009
sI16300
I2006
sI16303
I2006
sI16306
I2006
sI49075
I2009
sI49076
I2009
sI73716
I2010
sI49082
I2009
sI16320
I2006
sI49091
I2009
sI57334
I2009
sI49097
I2009
sI49098
I2009
sI90104
I2011
sI16342
I2006
sI49112
I2009
sI16345
I2006
sI16347
I2006
sI16349
I2006
sI49119
I2009
sI49121
I2009
sI49123
I2009
sI16369
I2006
sI16373
I2006
sI49144
I2009
sI49147
I2009
sI49150
I2009
sI49154
I2009
sI16391
I2006
sI16392
I2006
sI16399
I2006
sI16405
I2006
sI95577
I2011
sI16411
I2006
sI16412
I2006
sI56194
I2009
sI49183
I2009
sI2736
I2001
sI71470
I2010
sI16439
I2006
sI16442
I2006
sI81981
I2011
sI16446
I2006
sI81985
I2011
sI57355
I2009
sI81990
I2011
sI49223
I2009
sI16456
I2006
sI16458
I2006
sI40973
I2008
sI92203
I2011
sI62819
I2009
sI82004
I2011
sI40974
I2008
sI49238
I2009
sI49239
I2009
sI49240
I2009
sI16476
I2006
sI16477
I2006
sI16478
I2006
sI16479
I2006
sI16480
I2006
sI49249
I2009
sI16483
I2006
sI49254
I2009
sI73745
I2010
sI49256
I2009
sI49259
I2009
sI16492
I2006
sI82030
I2011
sI95592
I2011
sI49267
I2009
sI49272
I2009
sI16511
I2006
sI114816
I2012
sI16514
I2006
sI111979
I2012
sI16519
I2006
sI82056
I2011
sI49289
I2009
sI49290
I2009
sI16523
I2006
sI101058
I2012
sI82062
I2011
sI16529
I2006
sI82067
I2011
sI82068
I2011
sI49303
I2009
sI49304
I2009
sI117444
I2012
sI80203
I2011
sI49308
I2009
sI114846
I2012
sI84677
I2011
sI16546
I2006
sI114851
I2012
sI49317
I2009
sI16558
I2006
sI57290
I2009
sI82097
I2011
sI16564
I2006
sI49340
I2009
sI49342
I2009
sI2734
I2001
sI73760
I2011
sI16587
I2006
sI16590
I2006
sI16592
I2006
sI16593
I2006
sI49364
I2009
sI97875
I2012
sI49372
I2009
sI49376
I2009
sI84688
I2011
sI114914
I2012
sI114915
I2012
sI49381
I2009
sI114923
I2012
sI16620
I2006
sI82157
I2011
sI114928
I2012
sI114930
I2012
sI49395
I2009
sI49398
I2009
sI49399
I2009
sI49400
I2009
sI49401
I2009
sI16634
I2006
sI95615
I2011
sI82172
I2011
sI16639
I2006
sI16641
I2006
sI114946
I2012
sI82181
I2011
sI82186
I2011
sI51927
I2009
sI114957
I2012
sI49422
I2009
sI114959
I2012
sI114960
I2012
sI101080
I2012
sI114962
I2012
sI82195
I2011
sI114965
I2012
sI16662
I2006
sI16663
I2006
sI16667
I2006
sI16670
I2006
sI16671
I2006
sI114976
I2012
sI16673
I2006
sI16674
I2006
sI114981
I2012
sI16678
I2006
sI114984
I2012
sI114991
I2012
sI114992
I2012
sI16689
I2006
sI49458
I2009
sI49459
I2009
sI16693
I2006
sI16694
I2006
sI49465
I2009
sI16699
I2006
sI49468
I2009
sI49472
I2009
sI115012
I2012
sI16716
I2006
sI49485
I2009
sI16718
I2006
sI82255
I2011
sI115024
I2012
sI16721
I2006
sI49490
I2009
sI16723
I2006
sI16726
I2006
sI82264
I2011
sI82266
I2011
sI82269
I2011
sI82274
I2011
sI82275
I2011
sI82277
I2011
sI82279
I2011
sI49512
I2009
sI16745
I2006
sI49517
I2009
sI49518
I2009
sI49519
I2009
sI49522
I2009
sI16756
I2006
sI8254
I2004
sI16758
I2006
sI49533
I2009
sI16772
I2006
sI16773
I2006
sI82311
I2011
sI79255
I2011
sI68333
I2010
sI82328
I2011
sI49561
I2009
sI49562
I2009
sI16798
I2006
sI49567
I2009
sI49571
I2009
sI82342
I2011
sI16809
I2006
sI82348
I2011
sI49581
I2009
sI49582
I2009
sI49583
I2009
sI115122
I2012
sI82355
I2011
sI82356
I2011
sI115126
I2012
sI49594
I2009
sI82363
I2011
sI82366
I2011
sI16831
I2006
sI82368
I2011
sI49601
I2009
sI82370
I2011
sI115139
I2012
sI82373
I2011
sI16839
I2006
sI115144
I2012
sI16841
I2006
sI49610
I2009
sI49611
I2009
sI115151
I2012
sI49617
I2009
sI115155
I2012
sI16853
I2006
sI68345
I2010
sI82396
I2011
sI117498
I2012
sI49630
I2009
sI16863
I2006
sI49632
I2009
sI16865
I2006
sI16866
I2006
sI49636
I2009
sI49637
I2009
sI112039
I2012
sI16876
I2006
sI16883
I2006
sI82422
I2011
sI82423
I2011
sI16888
I2006
sI16889
I2006
sI49659
I2009
sI49661
I2009
sI16900
I2006
sI82439
I2011
sI52937
I2009
sI16907
I2006
sI82445
I2011
sI95661
I2011
sI82448
I2011
sI82450
I2011
sI16916
I2006
sI49685
I2009
sI82454
I2011
sI16919
I2006
sI82461
I2011
sI82462
I2011
sI16927
I2006
sI16932
I2006
sI16933
I2006
sI82470
I2011
sI16935
I2006
sI16939
I2006
sI115246
I2012
sI115247
I2012
sI16944
I2006
sI79283
I2011
sI16949
I2006
sI117513
I2012
sI16952
I2006
sI95668
I2011
sI115262
I2012
sI115264
I2012
sI16963
I2006
sI16967
I2006
sI115272
I2012
sI16969
I2006
sI16970
I2006
sI16971
I2006
sI82509
I2011
sI115280
I2012
sI115286
I2012
sI90212
I2011
sI16988
I2006
sI115295
I2012
sI16999
I2006
sI82536
I2011
sI115305
I2012
sI17002
I2006
sI115307
I2012
sI68370
I2010
sI74763
I2011
sI82546
I2011
sI82549
I2011
sI115318
I2012
sI82551
I2011
sI82552
I2011
sI82553
I2011
sI82558
I2011
sI82559
I2011
sI82562
I2011
sI82563
I2011
sI115332
I2012
sI17030
I2006
sI17034
I2006
sI8205
I2004
sI17038
I2006
sI82575
I2011
sI17040
I2006
sI82578
I2011
sI82579
I2011
sI17044
I2006
sI17045
I2006
sI17046
I2006
sI17047
I2006
sI115359
I2012
sI115361
I2012
sI82597
I2011
sI17063
I2006
sI82601
I2011
sI17066
I2006
sI97679
I2012
sI82613
I2011
sI115383
I2012
sI82623
I2011
sI82624
I2011
sI82625
I2011
sI82626
I2011
sI95691
I2011
sI17092
I2006
sI115399
I2012
sI48579
I2008
sI82640
I2011
sI95694
I2011
sI82646
I2011
sI82648
I2011
sI17119
I2006
sI17120
I2006
sI17121
I2006
sI17123
I2006
sI17126
I2006
sI17129
I2006
sI115435
I2012
sI17134
I2006
sI115441
I2012
sI82674
I2011
sI82675
I2011
sI17140
I2006
sI82677
I2011
sI115450
I2012
sI52010
I2009
sI82686
I2011
sI115457
I2012
sI17154
I2006
sI115459
I2012
sI115461
I2012
sI115462
I2012
sI17159
I2006
sI115465
I2012
sI17165
I2006
sI17169
I2006
sI17171
I2006
sI17172
I2006
sI17174
I2006
sI17179
I2006
sI115484
I2012
sI17184
I2006
sI115498
I2012
sI95709
I2011
sI87863
I2011
sI115510
I2012
sI82744
I2011
sI115513
I2012
sI115514
I2012
sI95711
I2011
sI82750
I2011
sI82751
I2011
sI17219
I2006
sI17223
I2006
sI17230
I2006
sI115538
I2012
sI62948
I2009
sI82779
I2011
sI82784
I2011
sI57489
I2009
sI82795
I2011
sI17260
I2006
sI17262
I2006
sI115572
I2012
sI17273
I2006
sI82816
I2011
sI82820
I2011
sI82821
I2011
sI17288
I2006
sI17290
I2006
sI115597
I2012
sI115598
I2012
sI115599
I2012
sI82832
I2011
sI82833
I2011
sI82835
I2011
sI51859
I2009
sI115606
I2012
sI57497
I2009
sI82840
I2011
sI95727
I2011
sI82856
I2011
sI85685
I2011
sI115637
I2012
sI95732
I2011
sI82874
I2011
sI115643
I2012
sI50108
I2009
sI50109
I2009
sI95733
I2011
sI115650
I2012
sI84811
I2011
sI115653
I2012
sI115659
I2012
sI50126
I2009
sI50127
I2009
sI95736
I2011
sI93952
I2011
sI50133
I2009
sI50134
I2009
sI82903
I2011
sI82905
I2011
sI82907
I2011
sI82910
I2011
sI82911
I2011
sI68432
I2010
sI62971
I2009
sI115684
I2012
sI115689
I2012
sI115693
I2012
sI115695
I2012
sI115696
I2012
sI115701
I2012
sI82938
I2011
sI95743
I2011
sI75185
I2011
sI50177
I2009
sI82949
I2011
sI115718
I2012
sI95745
I2011
sI82956
I2011
sI68230
I2010
sI115728
I2012
sI82961
I2011
sI115740
I2012
sI50206
I2009
sI50207
I2009
sI115744
I2012
sI50209
I2009
sI50211
I2009
sI115749
I2012
sI50214
I2009
sI50217
I2009
sI95751
I2011
sI82989
I2011
sI50224
I2009
sI50225
I2009
sI50226
I2009
sI50227
I2009
sI115765
I2012
sI50233
I2009
sI115770
I2012
sI50238
I2009
sI50241
I2009
sI86781
I2011
sI50246
I2009
sI115784
I2012
sI115788
I2012
sI50255
I2009
sI50258
I2009
sI50260
I2009
sI115797
I2012
sI50262
I2009
sI72597
I2010
sI115801
I2012
sI115805
I2012
sI115806
I2012
sI115807
I2012
sI50275
I2009
sI115812
I2012
sI95762
I2011
sI115823
I2012
sI101224
I2012
sI50290
I2009
sI83062
I2011
sI95764
I2011
sI83066
I2011
sI79381
I2011
sI50310
I2009
sI115848
I2012
sI35692
I2008
sI95767
I2011
sI68461
I2010
sI50322
I2009
sI115863
I2012
sI79146
I2011
sI78055
I2011
sI95771
I2011
sI50340
I2009
sI95772
I2011
sI115890
I2012
sI115892
I2012
sI115893
I2012
sI115895
I2012
sI50360
I2009
sI112160
I2012
sI50375
I2009
sI112162
I2012
sI95779
I2011
sI50390
I2009
sI50392
I2009
sI50393
I2009
sI50394
I2009
sI50395
I2009
sI50396
I2009
sI50398
I2009
sI50399
I2009
sI70822
I2010
sI101246
I2012
sI17656
I2006
sI17657
I2006
sI35504
I2008
sI35714
I2008
sI95789
I2011
sI95790
I2011
sI17687
I2006
sI17690
I2006
sI68485
I2010
sI17697
I2006
sI17700
I2006
sI82424
I2011
sI116006
I2012
sI95793
I2011
sI17704
I2006
sI17706
I2006
sI50475
I2009
sI71513
I2010
sI79411
I2011
sI116021
I2012
sI50486
I2009
sI116026
I2012
sI116028
I2012
sI95797
I2011
sI112182
I2012
sI50503
I2009
sI17736
I2006
sI17737
I2006
sI17740
I2006
sI52112
I2009
sI116072
I2012
sI17772
I2006
sI116078
I2012
sI116079
I2012
sI17779
I2006
sI17781
I2006
sI17782
I2006
sI17784
I2006
sI17785
I2006
sI17788
I2006
sI116093
I2012
sI82427
I2011
sI50560
I2009
sI50561
I2009
sI50562
I2009
sI95809
I2011
sI116107
I2012
sI83343
I2011
sI51876
I2009
sI17812
I2006
sI17813
I2006
sI116118
I2012
sI83352
I2011
sI17817
I2006
sI84040
I2011
sI101274
I2012
sI95813
I2011
sI17827
I2006
sI50596
I2009
sI17829
I2006
sI50599
I2009
sI17832
I2006
sI83369
I2011
sI83370
I2011
sI17835
I2006
sI83373
I2011
sI50607
I2009
sI68511
I2010
sI116158
I2012
sI17855
I2006
sI50624
I2009
sI112203
I2012
sI50628
I2009
sI116165
I2012
sI116167
I2012
sI116168
I2012
sI116169
I2012
sI116171
I2012
sI116172
I2012
sI116173
I2012
sI116175
I2012
sI17873
I2006
sI17874
I2006
sI17875
I2006
sI116180
I2012
sI116181
I2012
sI116182
I2012
sI50647
I2009
sI50649
I2009
sI116186
I2012
sI116187
I2012
sI116188
I2012
sI50653
I2009
sI83426
I2011
sI17893
I2006
sI17895
I2006
sI50665
I2009
sI85704
I2011
sI50671
I2009
sI83440
I2011
sI50673
I2009
sI50675
I2009
sI17909
I2006
sI17910
I2006
sI17911
I2006
sI17914
I2006
sI17915
I2006
sI17918
I2006
sI77291
I2011
sI17920
I2006
sI71520
I2010
sI116227
I2012
sI83461
I2011
sI50696
I2009
sI83468
I2011
sI83469
I2011
sI83471
I2011
sI17942
I2006
sI98799
I2012
sI50714
I2009
sI50716
I2009
sI50718
I2009
sI116262
I2012
sI83495
I2011
sI17961
I2006
sI50730
I2009
sI116267
I2012
sI17964
I2006
sI116269
I2012
sI116270
I2012
sI116272
I2012
sI116273
I2012
sI17970
I2006
sI116275
I2012
sI71522
I2010
sI87889
I2011
sI83519
I2011
sI79456
I2011
sI116292
I2012
sI116293
I2012
sI112225
I2012
sI79458
I2011
sI83539
I2011
sI55767
I2009
sI50775
I2009
sI83544
I2011
sI50778
I2009
sI83547
I2011
sI50781
I2009
sI18015
I2006
sI83552
I2011
sI116321
I2012
sI18018
I2006
sI18019
I2006
sI116326
I2012
sI18023
I2006
sI50792
I2009
sI83561
I2011
sI18029
I2006
sI50800
I2009
sI116340
I2012
sI18038
I2006
sI50807
I2009
sI83576
I2011
sI116350
I2012
sI50816
I2009
sI116356
I2012
sI50823
I2009
sI18056
I2006
sI50825
I2009
sI116362
I2012
sI116365
I2012
sI74008
I2011
sI18066
I2006
sI83603
I2011
sI83604
I2011
sI95854
I2011
sI83606
I2011
sI116375
I2012
sI18073
I2006
sI18074
I2006
sI95530
I2011
sI18077
I2006
sI18079
I2006
sI18080
I2006
sI50849
I2009
sI18082
I2006
sI50851
I2009
sI18084
I2006
sI18085
I2006
sI50860
I2009
sI50861
I2009
sI50862
I2009
sI50864
I2009
sI116404
I2012
sI83638
I2011
sI50871
I2009
sI116410
I2012
sI83643
I2011
sI50877
I2009
sI116421
I2012
sI52172
I2009
sI18123
I2006
sI18124
I2006
sI18126
I2006
sI116432
I2012
sI83665
I2011
sI83667
I2011
sI18132
I2006
sI18133
I2006
sI50904
I2009
sI18137
I2006
sI83678
I2011
sI18143
I2006
sI83680
I2011
sI50913
I2009
sI18152
I2006
sI18153
I2006
sI50927
I2009
sI50929
I2009
sI83704
I2011
sI83706
I2011
sI50939
I2009
sI18175
I2006
sI18176
I2006
sI18177
I2006
sI83721
I2011
sI83722
I2011
sI18190
I2006
sI83727
I2011
sI83728
I2011
sI83729
I2011
sI83730
I2011
sI83733
I2011
sI83734
I2011
sI83739
I2011
sI18204
I2006
sI95877
I2011
sI57648
I2009
sI98808
I2012
sI83753
I2011
sI18220
I2006
sI86806
I2011
sI50998
I2009
sI18231
I2006
sI18233
I2006
sI95882
I2011
sI51006
I2009
sI51007
I2009
sI83778
I2011
sI48617
I2009
sI116548
I2012
sI83782
I2011
sI116555
I2012
sI51020
I2009
sI51023
I2009
sI74040
I2011
sI18258
I2006
sI68579
I2010
sI83798
I2011
sI83799
I2011
sI83801
I2011
sI18266
I2006
sI18267
I2006
sI41274
I2008
sI51043
I2009
sI51044
I2009
sI41276
I2008
sI83822
I2011
sI51056
I2009
sI83837
I2011
sI116607
I2012
sI51072
I2009
sI18305
I2006
sI51077
I2009
sI51080
I2009
sI83852
I2011
sI83857
I2011
sI18324
I2006
sI18328
I2006
sI51098
I2009
sI18331
I2006
sI18332
I2006
sI116639
I2012
sI116647
I2012
sI83882
I2011
sI83885
I2011
sI51118
I2009
sI51119
I2009
sI83888
I2011
sI83890
I2011
sI83891
I2011
sI51125
I2009
sI83894
I2011
sI74057
I2011
sI8523
I2004
sI51142
I2009
sI18378
I2006
sI116683
I2012
sI51156
I2009
sI18391
I2006
sI51161
I2009
sI74063
I2011
sI18396
I2006
sI74064
I2011
sI83938
I2011
sI116709
I2012
sI116711
I2012
sI116712
I2012
sI83945
I2011
sI83947
I2011
sI116716
I2012
sI74066
I2011
sI51188
I2009
sI18421
I2006
sI18422
I2006
sI83959
I2011
sI83960
I2011
sI18427
I2006
sI83964
I2011
sI51198
I2009
sI51199
I2009
sI51200
I2009
sI51201
I2009
sI51202
I2009
sI51204
I2009
sI51205
I2009
sI51206
I2009
sI51207
I2009
sI83976
I2011
sI83977
I2011
sI18443
I2006
sI51212
I2009
sI83981
I2011
sI18457
I2006
sI51226
I2009
sI51227
I2009
sI74074
I2011
sI18467
I2006
sI84004
I2011
sI18471
I2006
sI8540
I2004
sI68615
I2010
sI84014
I2011
sI84015
I2011
sI18482
I2006
sI51251
I2009
sI18486
I2006
sI84023
I2011
sI51260
I2009
sI51261
I2009
sI18495
I2006
sI52235
I2009
sI18504
I2006
sI97233
I2011
sI18506
I2006
sI18509
I2006
sI68621
I2010
sI51281
I2009
sI116819
I2012
sI88580
I2011
sI51286
I2009
sI57700
I2009
sI51291
I2009
sI84060
I2011
sI84061
I2011
sI84062
I2011
sI18528
I2006
sI84065
I2011
sI112315
I2012
sI84069
I2011
sI51303
I2009
sI51306
I2009
sI51307
I2009
sI18548
I2006
sI18549
I2006
sI18551
I2006
sI51323
I2009
sI44263
I2008
sI84099
I2011
sI18570
I2006
sI18571
I2006
sI51340
I2009
sI57709
I2009
sI51345
I2009
sI51347
I2009
sI84116
I2011
sI18583
I2006
sI18584
I2006
sI18586
I2006
sI18587
I2006
sI51356
I2009
sI63173
I2009
sI18592
I2006
sI46790
I2008
sI84145
I2011
sI18612
I2006
sI117790
I2012
sI18617
I2006
sI18619
I2006
sI18621
I2006
sI116927
I2012
sI97731
I2012
sI18639
I2006
sI116944
I2012
sI116945
I2012
sI116947
I2012
sI116948
I2012
sI18645
I2006
sI18650
I2006
sI18651
I2006
sI18654
I2006
sI84192
I2011
sI18657
I2006
sI72636
I2010
sI84206
I2011
sI18671
I2006
sI18681
I2006
sI8576
I2004
sI18692
I2006
sI18693
I2006
sI18695
I2006
sI18698
I2006
sI18701
I2006
sI84238
I2011
sI18703
I2006
sI84240
I2011
sI84241
I2011
sI84242
I2011
sI84243
I2011
sI51480
I2009
sI51482
I2009
sI101424
I2012
sI18722
I2006
sI18729
I2006
sI84268
I2011
sI18735
I2006
sI18736
I2006
sI18737
I2006
sI18738
I2006
sI51508
I2009
sI51519
I2009
sI68662
I2010
sI112353
I2012
sI90983
I2011
sI18764
I2006
sI51533
I2009
sI51537
I2009
sI18771
I2006
sI51540
I2009
sI117081
I2012
sI18778
I2006
sI117084
I2012
sI117086
I2012
sI117088
I2012
sI51556
I2009
sI84325
I2011
sI117094
I2012
sI117095
I2012
sI74976
I2011
sI117101
I2012
sI18798
I2006
sI117103
I2012
sI46825
I2008
sI18808
I2006
sI18809
I2006
sI51581
I2009
sI18816
I2006
sI46827
I2008
sI18822
I2006
sI18823
I2006
sI117129
I2012
sI51594
I2009
sI117131
I2012
sI84365
I2011
sI18831
I2006
sI51600
I2009
sI84370
I2011
sI46830
I2008
sI51606
I2009
sI51607
I2009
sI51609
I2009
sI51611
I2009
sI51613
I2009
sI117151
I2012
sI51616
I2009
sI18849
I2006
sI18850
I2006
sI117155
I2012
sI51620
I2009
sI117157
I2012
sI117160
I2012
sI84393
I2011
sI117163
I2012
sI51629
I2009
sI84398
I2011
sI117832
I2012
sI117171
I2012
sI84404
I2011
sI83554
I2011
sI51639
I2009
sI51640
I2009
sI18873
I2006
sI51645
I2009
sI18878
I2006
sI95989
I2011
sI68683
I2010
sI84421
I2011
sI18887
I2006
sI18893
I2006
sI18894
I2006
sI117202
I2012
sI18899
I2006
sI18901
I2006
sI117206
I2012
sI18903
I2006
sI18904
I2006
sI18905
I2006
sI18906
I2006
sI18907
I2006
sI18908
I2006
sI117213
I2012
sI117215
I2012
sI51686
I2009
sI84455
I2011
sI84457
I2011
sI117226
I2012
sI51692
I2009
sI84462
I2011
sI51696
I2009
sI8616
I2004
sI84467
I2011
sI51700
I2009
sI51701
I2009
sI6086
I2003
sI18937
I2006
sI76785
I2011
sI18939
I2006
sI18943
I2006
sI18946
I2006
sI35926
I2008
sI18951
I2006
sI51720
I2009
sI18953
I2006
sI18955
I2006
sI18956
I2006
sI117261
I2012
sI57773
I2009
sI51732
I2009
sI51733
I2009
sI18967
I2006
sI84504
I2011
sI117275
I2012
sI51743
I2009
sI78102
I2011
sI84521
I2011
sI46855
I2008
sI117292
I2012
sI84525
I2011
sI84527
I2011
sI18993
I2006
sI18995
I2006
sI51765
I2009
sI117302
I2012
sI63241
I2009
sI84537
I2011
sI98619
I2012
sI51775
I2009
sI51776
I2009
sI19011
I2006
sI19014
I2006
sI19015
I2006
sI84553
I2011
sI51787
I2009
sI74830
I2011
sI19021
I2006
sI51790
I2009
sI19023
I2006
sI19025
I2006
sI19026
I2006
sI19027
I2006
sI51796
I2009
sI117339
I2012
sI84574
I2011
sI19039
I2006
sI84576
I2011
sI84577
I2011
sI51810
I2009
sI51812
I2009
sI51816
I2009
sI19051
I2006
sI51820
I2009
sI51821
I2009
sI19054
I2006
sI51825
I2009
sI51826
I2009
sI51829
I2009
sI117366
I2012
sI51831
I2009
sI51836
I2009
sI51837
I2009
sI117375
I2012
sI19072
I2006
sI84609
I2011
sI51842
I2009
sI19075
I2006
sI51844
I2009
sI19078
I2006
sI84616
I2011
sI51853
I2009
sI19087
I2006
sI19088
I2006
sI117395
I2012
sI51861
I2009
sI117398
I2012
sI117400
I2012
sI19100
I2006
sI19101
I2006
sI19103
I2006
sI51872
I2009
sI51875
I2009
sI19108
I2006
sI51878
I2009
sI96028
I2011
sI19116
I2006
sI51893
I2009
sI117432
I2012
sI68724
I2010
sI117434
I2012
sI117435
I2012
sI117436
I2012
sI51902
I2009
sI96032
I2011
sI19138
I2006
sI19139
I2006
sI19140
I2006
sI51909
I2009
sI63265
I2009
sI19152
I2006
sI84690
I2011
sI117463
I2012
sI117467
I2012
sI117471
I2012
sI19168
I2006
sI19173
I2006
sI19174
I2006
sI51944
I2009
sI84721
I2011
sI117493
I2012
sI84728
I2011
sI51961
I2009
sI19194
I2006
sI51963
I2009
sI84732
I2011
sI84733
I2011
sI90581
I2011
sI19200
I2006
sI3200
I2001
sI51970
I2009
sI19205
I2006
sI19206
I2006
sI75197
I2011
sI19209
I2006
sI84747
I2011
sI84748
I2011
sI19213
I2006
sI92655
I2011
sI117521
I2012
sI117522
I2012
sI117523
I2012
sI51989
I2009
sI117526
I2012
sI68290
I2010
sI3204
I2001
sI84765
I2011
sI84766
I2011
sI51999
I2009
sI19232
I2006
sI79664
I2011
sI19234
I2006
sI117541
I2012
sI52006
I2009
sI52007
I2009
sI19240
I2006
sI19242
I2006
sI52011
I2009
sI19244
I2006
sI79667
I2011
sI19252
I2006
sI84790
I2011
sI52025
I2009
sI8671
I2004
sI84796
I2011
sI117565
I2012
sI19262
I2006
sI117568
I2012
sI19266
I2006
sI19267
I2006
sI117573
I2012
sI79671
I2011
sI8674
I2004
sI19278
I2006
sI84815
I2011
sI79672
I2011
sI50834
I2009
sI52056
I2009
sI19291
I2006
sI19292
I2006
sI52061
I2009
sI8678
I2004
sI52075
I2009
sI117613
I2012
sI117616
I2012
sI52081
I2009
sI52089
I2009
sI19322
I2006
sI90602
I2011
sI52094
I2009
sI52096
I2009
sI117634
I2012
sI52101
I2009
sI52103
I2009
sI117647
I2012
sI19344
I2006
sI19349
I2006
sI52118
I2009
sI52121
I2009
sI19356
I2006
sI52132
I2009
sI52134
I2009
sI19371
I2006
sI19372
I2006
sI117678
I2012
sI68765
I2010
sI52144
I2009
sI19380
I2006
sI19381
I2006
sI19385
I2006
sI52156
I2009
sI52159
I2009
sI117696
I2012
sI52162
I2009
sI52163
I2009
sI52164
I2009
sI52165
I2009
sI19404
I2006
sI52173
I2009
sI52174
I2009
sI52181
I2009
sI52186
I2009
sI52188
I2009
sI52190
I2009
sI52389
I2009
sI52194
I2009
sI90619
I2011
sI19429
I2006
sI14161
I2005
sI117740
I2012
sI52205
I2009
sI68776
I2010
sI52214
I2009
sI52217
I2009
sI71571
I2010
sI19453
I2006
sI19454
I2006
sI19456
I2006
sI19457
I2006
sI19458
I2006
sI52229
I2009
sI52230
I2009
sI52231
I2009
sI52233
I2009
sI52234
I2009
sI117771
I2012
sI117776
I2012
sI117777
I2012
sI117780
I2012
sI117781
I2012
sI52249
I2009
sI19486
I2006
sI19487
I2006
sI19490
I2006
sI117795
I2012
sI19492
I2006
sI52268
I2009
sI52272
I2009
sI52275
I2009
sI52276
I2009
sI52277
I2009
sI52279
I2009
sI19517
I2006
sI19519
I2006
sI90635
I2011
sI52292
I2009
sI52293
I2009
sI117830
I2012
sI19528
I2006
sI90123
I2011
sI117841
I2012
sI117844
I2012
sI52309
I2009
sI19548
I2006
sI117853
I2012
sI117855
I2012
sI78027
I2011
sI19555
I2006
sI19557
I2006
sI117863
I2012
sI52331
I2009
sI52334
I2009
sI52335
I2009
sI52336
I2009
sI52340
I2009
sI117877
I2012
sI52345
I2009
sI52347
I2009
sI19581
I2006
sI52350
I2009
sI19583
I2006
sI117888
I2012
sI19585
I2006
sI117892
I2012
sI117894
I2012
sI117895
I2012
sI52366
I2009
sI19600
I2006
sI117905
I2012
sI117906
I2012
sI19604
I2006
sI117910
I2012
sI117914
I2012
sI52385
I2009
sI52386
I2009
sI19619
I2006
sI19620
I2006
sI101574
I2012
sI79729
I2011
sI52393
I2009
sI117931
I2012
sI117933
I2012
sI19630
I2006
sI117937
I2012
sI52402
I2009
sI19636
I2006
sI74270
I2011
sI19645
I2006
sI19647
I2006
sI19665
I2006
sI52441
I2009
sI52442
I2009
sI19675
I2006
sI19685
I2006
sI117990
I2012
sI117991
I2012
sI117994
I2012
sI19695
I2006
sI19696
I2006
sI19698
I2006
sI19699
I2006
sI118014
I2012
sI118016
I2012
sI118017
I2012
sI90129
I2011
sI19728
I2006
sI19732
I2006
sI118039
I2012
sI19739
I2006
sI85276
I2011
sI19742
I2006
sI19743
I2006
sI52443
I2009
sI89039
I2011
sI71581
I2010
sI118057
I2012
sI85290
I2011
sI118061
I2012
sI118063
I2012
sI19760
I2006
sI85297
I2011
sI19762
I2006
sI85299
I2011
sI85301
I2011
sI19766
I2006
sI19773
I2006
sI85310
I2011
sI85311
I2011
sI19776
I2006
sI19780
I2006
sI19781
I2006
sI19784
I2006
sI85324
I2011
sI85326
I2011
sI19791
I2006
sI85328
I2011
sI19793
I2006
sI19794
I2006
sI19797
I2006
sI85336
I2011
sI19803
I2006
sI118109
I2012
sI68837
I2010
sI57915
I2009
sI52580
I2009
sI62854
I2009
sI19816
I2006
sI19818
I2006
sI19820
I2006
sI112530
I2012
sI118126
I2012
sI19823
I2006
sI85367
I2011
sI85370
I2011
sI118151
I2012
sI19848
I2006
sI68844
I2010
sI19850
I2006
sI85387
I2011
sI85393
I2011
sI19859
I2006
sI52629
I2009
sI118166
I2012
sI118167
I2012
sI52632
I2009
sI47002
I2008
sI118174
I2012
sI85408
I2011
sI118178
I2012
sI118182
I2012
sI118188
I2012
sI85421
I2011
sI19886
I2006
sI47005
I2008
sI19888
I2006
sI19889
I2006
sI19890
I2006
sI118198
I2012
sI57929
I2009
sI52665
I2009
sI118204
I2012
sI85439
I2011
sI118212
I2012
sI118216
I2012
sI118217
I2012
sI118220
I2012
sI118221
I2012
sI52686
I2009
sI19920
I2006
sI118225
I2012
sI19928
I2006
sI52698
I2009
sI85468
I2011
sI118238
I2012
sI85473
I2011
sI19938
I2006
sI85475
I2011
sI85476
I2011
sI85482
I2011
sI85483
I2011
sI19949
I2006
sI19952
I2006
sI52721
I2009
sI19958
I2006
sI38854
I2008
sI52729
I2009
sI52730
I2009
sI52731
I2009
sI52735
I2009
sI19970
I2006
sI19971
I2006
sI19977
I2006
sI19978
I2006
sI19979
I2006
sI19980
I2006
sI118285
I2012
sI19983
I2006
sI52756
I2009
sI118294
I2012
sI118303
I2012
sI118304
I2012
sI85539
I2011
sI97243
I2011
sI20006
I2006
sI20008
I2006
sI118317
I2012
sI52782
I2009
sI20017
I2006
sI85554
I2011
sI96179
I2011
sI52793
I2009
sI20026
I2006
sI52795
I2009
sI85564
I2011
sI68874
I2010
sI20030
I2006
sI20032
I2006
sI52801
I2009
sI20034
I2006
sI52807
I2009
sI52808
I2009
sI20041
I2006
sI52810
I2009
sI20045
I2006
sI41571
I2008
sI47033
I2008
sI52830
I2009
sI41573
I2008
sI85600
I2011
sI85603
I2011
sI85607
I2011
sI20074
I2006
sI52844
I2009
sI85617
I2011
sI20084
I2006
sI52853
I2009
sI20086
I2006
sI52855
I2009
sI20088
I2006
sI52857
I2009
sI52858
I2009
sI52860
I2009
sI74346
I2011
sI52865
I2009
sI52867
I2009
sI85637
I2011
sI20102
I2006
sI20104
I2006
sI20105
I2006
sI85642
I2011
sI85271
I2011
sI85645
I2011
sI85646
I2011
sI87491
I2011
sI20114
I2006
sI20118
I2006
sI85657
I2011
sI52891
I2009
sI85661
I2011
sI52894
I2009
sI85664
I2011
sI20131
I2006
sI20133
I2006
sI20135
I2006
sI52904
I2009
sI52906
I2009
sI52907
I2009
sI20141
I2006
sI85683
I2011
sI86870
I2011
sI118046
I2012
sI85686
I2011
sI85690
I2011
sI85693
I2011
sI85694
I2011
sI20160
I2006
sI20162
I2006
sI112587
I2012
sI20164
I2006
sI20166
I2006
sI85703
I2011
sI20168
I2006
sI118473
I2012
sI52938
I2009
sI85707
I2011
sI52940
I2009
sI85709
I2011
sI118478
I2012
sI85713
I2011
sI118483
I2012
sI20181
I2006
sI52950
I2009
sI52951
I2009
sI20187
I2006
sI52956
I2009
sI20190
I2006
sI77604
I2011
sI52961
I2009
sI52966
I2009
sI52968
I2009
sI52971
I2009
sI74365
I2011
sI85755
I2011
sI52991
I2009
sI85760
I2011
sI85761
I2011
sI68908
I2010
sI85772
I2011
sI53005
I2009
sI53006
I2009
sI20239
I2006
sI85776
I2011
sI20241
I2006
sI20242
I2006
sI53011
I2009
sI85784
I2011
sI118554
I2012
sI19759
I2006
sI85799
I2011
sI63452
I2009
sI53035
I2009
sI53038
I2009
sI118575
I2012
sI53040
I2009
sI118577
I2012
sI118578
I2012
sI85811
I2011
sI85812
I2011
sI118581
I2012
sI85814
I2011
sI85815
I2011
sI53048
I2009
sI57994
I2009
sI53054
I2009
sI53055
I2009
sI53057
I2009
sI118600
I2012
sI8844
I2004
sI77055
I2011
sI96227
I2011
sI20310
I2006
sI84588
I2011
sI20313
I2006
sI53082
I2009
sI85851
I2011
sI7773
I2004
sI20320
I2006
sI53089
I2009
sI53090
I2009
sI53097
I2009
sI53099
I2009
sI53100
I2009
sI53102
I2009
sI85873
I2011
sI74387
I2011
sI118645
I2012
sI20344
I2006
sI118650
I2012
sI53115
I2009
sI53117
I2009
sI20353
I2006
sI112619
I2012
sI20360
I2006
sI20361
I2006
sI118667
I2012
sI118672
I2012
sI53137
I2009
sI20374
I2006
sI118680
I2012
sI118682
I2012
sI53147
I2009
sI63964
I2009
sI118685
I2012
sI52549
I2009
sI85924
I2011
sI8860
I2004
sI85932
I2011
sI20397
I2006
sI20398
I2006
sI20399
I2006
sI85937
I2011
sI20403
I2006
sI20404
I2006
sI20407
I2006
sI8863
I2004
sI85955
I2011
sI20430
I2006
sI20431
I2006
sI53200
I2009
sI20435
I2006
sI53205
I2009
sI53206
I2009
sI53207
I2009
sI85978
I2011
sI118747
I2012
sI53214
I2009
sI53218
I2009
sI96251
I2011
sI53222
I2009
sI85329
I2011
sI20456
I2006
sI118761
I2012
sI85330
I2011
sI53234
I2009
sI20470
I2006
sI53241
I2009
sI86011
I2011
sI86012
I2011
sI86013
I2011
sI20478
I2006
sI53247
I2009
sI74411
I2011
sI20484
I2006
sI34507
I2007
sI20487
I2006
sI20488
I2006
sI53257
I2009
sI53258
I2009
sI118796
I2012
sI53264
I2009
sI53265
I2009
sI53266
I2009
sI79875
I2011
sI53270
I2009
sI53272
I2009
sI118809
I2012
sI53275
I2009
sI53277
I2009
sI20511
I2006
sI53281
I2009
sI53283
I2009
sI112646
I2012
sI20518
I2006
sI83609
I2011
sI68956
I2010
sI53291
I2009
sI94846
I2011
sI53299
I2009
sI20533
I2006
sI79881
I2011
sI90918
I2011
sI20540
I2006
sI53309
I2009
sI86080
I2011
sI53313
I2009
sI20546
I2006
sI20547
I2006
sI86084
I2011
sI86085
I2011
sI86086
I2011
sI86087
I2011
sI53320
I2009
sI53321
I2009
sI53322
I2009
sI53323
I2009
sI53324
I2009
sI53325
I2009
sI53329
I2009
sI53330
I2009
sI53332
I2009
sI53333
I2009
sI20566
I2006
sI20567
I2006
sI20570
I2006
sI53339
I2009
sI118876
I2012
sI20574
I2006
sI53343
I2009
sI20577
I2006
sI85350
I2011
sI20582
I2006
sI20584
I2006
sI53355
I2009
sI53360
I2009
sI53361
I2009
sI20600
I2006
sI20601
I2006
sI20602
I2006
sI85354
I2011
sI53374
I2009
sI53375
I2009
sI20618
I2006
sI53387
I2009
sI85357
I2011
sI53393
I2009
sI53394
I2009
sI52590
I2009
sI20631
I2006
sI20636
I2006
sI53406
I2009
sI20648
I2006
sI97798
I2012
sI53420
I2009
sI68978
I2010
sI8058
I2004
sI53425
I2009
sI53426
I2009
sI53428
I2009
sI19237
I2006
sI53430
I2009
sI53431
I2009
sI53437
I2009
sI20677
I2006
sI53447
I2009
sI53449
I2009
sI20682
I2006
sI20684
I2006
sI96290
I2011
sI41677
I2008
sI118997
I2012
sI20694
I2006
sI119001
I2012
sI74447
I2011
sI53471
I2009
sI53474
I2009
sI20716
I2006
sI20720
I2006
sI20722
I2006
sI20723
I2006
sI51973
I2009
sI53496
I2009
sI20730
I2006
sI119036
I2012
sI20734
I2006
sI53505
I2009
sI119043
I2012
sI53511
I2009
sI53512
I2009
sI20749
I2006
sI53518
I2009
sI20753
I2006
sI53523
I2009
sI119060
I2012
sI20762
I2006
sI53533
I2009
sI119070
I2012
sI119071
I2012
sI119072
I2012
sI53538
I2009
sI119078
I2012
sI53543
I2009
sI20777
I2006
sI20778
I2006
sI85383
I2011
sI20780
I2006
sI20781
I2006
sI20782
I2006
sI53551
I2009
sI53552
I2009
sI119089
I2012
sI20786
I2006
sI119091
I2012
sI119094
I2012
sI20792
I2006
sI96308
I2011
sI119099
I2012
sI20797
I2006
sI119102
I2012
sI53569
I2009
sI119112
I2012
sI119113
I2012
sI119114
I2012
sI119115
I2012
sI119116
I2012
sI20813
I2006
sI119118
I2012
sI119119
I2012
sI119120
I2012
sI119121
I2012
sI119122
I2012
sI119124
I2012
sI53589
I2009
sI119129
I2012
sI119130
I2012
sI119131
I2012
sI119133
I2012
sI119135
I2012
sI119136
I2012
sI119138
I2012
sI119140
I2012
sI53605
I2009
sI20839
I2006
sI119148
I2012
sI53615
I2009
sI20849
I2006
sI52627
I2009
sI20852
I2006
sI53621
I2009
sI53623
I2009
sI20856
I2006
sI53632
I2009
sI53633
I2009
sI53634
I2009
sI53636
I2009
sI52630
I2009
sI53638
I2009
sI53639
I2009
sI53642
I2009
sI20876
I2006
sI20879
I2006
sI20880
I2006
sI20883
I2006
sI53656
I2009
sI74479
I2011
sI20894
I2006
sI53668
I2009
sI119205
I2012
sI119206
I2012
sI119207
I2012
sI119209
I2012
sI53674
I2009
sI119211
I2012
sI119214
I2012
sI53682
I2009
sI53684
I2009
sI53685
I2009
sI53686
I2009
sI119223
I2012
sI20920
I2006
sI20921
I2006
sI53691
I2009
sI53694
I2009
sI53696
I2009
sI53697
I2009
sI20930
I2006
sI53701
I2009
sI53702
I2009
sI20940
I2006
sI20941
I2006
sI53711
I2009
sI53712
I2009
sI20945
I2006
sI119250
I2012
sI119251
I2012
sI119252
I2012
sI119253
I2012
sI119256
I2012
sI119257
I2012
sI119259
I2012
sI119260
I2012
sI119261
I2012
sI119262
I2012
sI119263
I2012
sI119267
I2012
sI20965
I2006
sI119270
I2012
sI86508
I2011
sI86510
I2011
sI119280
I2012
sI119281
I2012
sI86514
I2011
sI20979
I2006
sI119284
I2012
sI119285
I2012
sI119286
I2012
sI119288
I2012
sI119289
I2012
sI74495
I2011
sI119292
I2012
sI119293
I2012
sI63573
I2009
sI86528
I2011
sI85807
I2011
sI63574
I2009
sI53768
I2009
sI86539
I2011
sI119313
I2012
sI119315
I2012
sI53780
I2009
sI21016
I2006
sI21017
I2006
sI86555
I2011
sI21021
I2006
sI86559
I2011
sI86560
I2011
sI53793
I2009
sI96347
I2011
sI101809
I2012
sI21032
I2006
sI86569
I2011
sI21034
I2006
sI53806
I2009
sI53807
I2009
sI53812
I2009
sI53813
I2009
sI53814
I2009
sI53822
I2009
sI86591
I2011
sI93447
I2011
sI86593
I2011
sI21058
I2006
sI21061
I2006
sI53830
I2009
sI21063
I2006
sI53833
I2009
sI63586
I2009
sI21071
I2006
sI21072
I2006
sI69048
I2010
sI86610
I2011
sI47203
I2008
sI86614
I2011
sI21079
I2006
sI86616
I2011
sI21081
I2006
sI21082
I2006
sI21084
I2006
sI63589
I2009
sI21089
I2006
sI21090
I2006
sI53859
I2009
sI53860
I2009
sI86630
I2011
sI82537
I2011
sI85436
I2011
sI21098
I2006
sI97813
I2012
sI86637
I2011
sI86644
I2011
sI3518
I2002
sI53889
I2009
sI21125
I2006
sI21126
I2006
sI21127
I2006
sI21128
I2006
sI21129
I2006
sI21131
I2006
sI53901
I2009
sI53902
I2009
sI53903
I2009
sI86672
I2011
sI86673
I2011
sI53906
I2009
sI53907
I2009
sI53908
I2009
sI53910
I2009
sI58137
I2009
sI53912
I2009
sI53914
I2009
sI53915
I2009
sI53916
I2009
sI21149
I2006
sI86686
I2011
sI86688
I2011
sI47216
I2008
sI21154
I2006
sI86691
I2011
sI21156
I2006
sI86694
I2011
sI21159
I2006
sI21160
I2006
sI80357
I2011
sI53934
I2009
sI21168
I2006
sI85448
I2011
sI53938
I2009
sI53944
I2009
sI21180
I2006
sI21181
I2006
sI53951
I2009
sI53952
I2009
sI21185
I2006
sI53954
I2009
sI53958
I2009
sI87056
I2011
sI21195
I2006
sI86736
I2011
sI21203
I2006
sI21205
I2006
sI53977
I2009
sI21210
I2006
sI21211
I2006
sI21212
I2006
sI53982
I2009
sI21215
I2006
sI21216
I2006
sI21217
I2006
sI58150
I2009
sI21222
I2006
sI96726
I2011
sI53998
I2009
sI112765
I2012
sI54000
I2009
sI86769
I2011
sI54002
I2009
sI21235
I2006
sI21239
I2006
sI21240
I2006
sI58537
I2009
sI21243
I2006
sI21245
I2006
sI54016
I2009
sI86790
I2011
sI54024
I2009
sI21258
I2006
sI86799
I2011
sI54034
I2009
sI84725
I2011
sI86805
I2011
sI54038
I2009
sI86808
I2011
sI54050
I2009
sI86821
I2011
sI90929
I2011
sI86825
I2011
sI54061
I2009
sI54064
I2009
sI54065
I2009
sI21298
I2006
sI21299
I2006
sI21301
I2006
sI54077
I2009
sI88572
I2011
sI90934
I2011
sI54088
I2009
sI86860
I2011
sI93456
I2011
sI86864
I2011
sI86865
I2011
sI86868
I2011
sI54101
I2009
sI54102
I2009
sI21336
I2006
sI21337
I2006
sI86874
I2011
sI21339
I2006
sI54110
I2009
sI86882
I2011
sI54118
I2009
sI86888
I2011
sI86891
I2011
sI54127
I2009
sI54128
I2009
sI86897
I2011
sI54132
I2009
sI21368
I2006
sI21369
I2006
sI21370
I2006
sI54139
I2009
sI54142
I2009
sI54145
I2009
sI54146
I2009
sI54148
I2009
sI54150
I2009
sI54152
I2009
sI21386
I2006
sI21387
I2006
sI86924
I2011
sI86925
I2011
sI86926
I2011
sI86929
I2011
sI54163
I2009
sI21396
I2006
sI86933
I2011
sI54167
I2009
sI54169
I2009
sI74565
I2011
sI86944
I2011
sI21410
I2006
sI86947
I2011
sI86948
I2011
sI58182
I2009
sI21417
I2006
sI21418
I2006
sI86956
I2011
sI21421
I2006
sI54190
I2009
sI54191
I2009
sI7260
I2004
sI81688
I2011
sI86962
I2011
sI86963
I2011
sI21428
I2006
sI54197
I2009
sI86968
I2011
sI86970
I2011
sI86913
I2011
sI54213
I2009
sI80033
I2011
sI21453
I2006
sI21454
I2006
sI54226
I2009
sI54229
I2009
sI54230
I2009
sI54232
I2009
sI81819
I2011
sI54241
I2009
sI21474
I2006
sI54244
I2009
sI54245
I2009
sI21478
I2006
sI54249
I2009
sI87018
I2011
sI54252
I2009
sI21486
I2006
sI69117
I2010
sI72730
I2010
sI68229
I2010
sI21493
I2006
sI54265
I2009
sI21498
I2006
sI54267
I2009
sI54268
I2009
sI21502
I2006
sI21503
I2006
sI87042
I2011
sI54275
I2009
sI54277
I2009
sI87046
I2011
sI87048
I2011
sI58199
I2009
sI87052
I2011
sI87053
I2011
sI21518
I2006
sI21519
I2006
sI54288
I2009
sI89098
I2011
sI54291
I2009
sI21526
I2006
sI21530
I2006
sI54299
I2009
sI87072
I2011
sI87073
I2011
sI54306
I2009
sI21539
I2006
sI21541
I2006
sI21542
I2006
sI54311
I2009
sI21545
I2006
sI21547
I2006
sI54316
I2009
sI21550
I2006
sI54322
I2009
sI21556
I2006
sI80052
I2011
sI54331
I2009
sI118282
I2012
sI87102
I2011
sI54336
I2009
sI21569
I2006
sI21575
I2006
sI87112
I2011
sI87116
I2011
sI21582
I2006
sI21583
I2006
sI21584
I2006
sI21585
I2006
sI21586
I2006
sI21587
I2006
sI21591
I2006
sI54362
I2009
sI118287
I2012
sI47290
I2008
sI87136
I2011
sI87137
I2011
sI21602
I2006
sI87139
I2011
sI87143
I2011
sI54376
I2009
sI54377
I2009
sI54378
I2009
sI21611
I2006
sI54380
I2009
sI54381
I2009
sI87150
I2011
sI21615
I2006
sI87152
I2011
sI21623
I2006
sI54394
I2009
sI112831
I2012
sI54396
I2009
sI54397
I2009
sI87166
I2011
sI87177
I2011
sI87178
I2011
sI87182
I2011
sI54416
I2009
sI87186
I2011
sI21657
I2006
sI54426
I2009
sI54428
I2009
sI54435
I2009
sI96454
I2011
sI58225
I2009
sI87211
I2011
sI63688
I2009
sI21683
I2006
sI21684
I2006
sI54456
I2009
sI54458
I2009
sI21692
I2006
sI54461
I2009
sI7269
I2004
sI21696
I2006
sI69152
I2010
sI93108
I2011
sI87236
I2011
sI87243
I2011
sI54478
I2009
sI54479
I2009
sI87254
I2011
sI21719
I2006
sI87256
I2011
sI87257
I2011
sI87260
I2011
sI21725
I2006
sI96464
I2011
sI21731
I2006
sI54500
I2009
sI85542
I2011
sI54502
I2009
sI54503
I2009
sI110928
I2012
sI52955
I2009
sI21754
I2006
sI66485
I2010
sI21765
I2006
sI21766
I2006
sI54540
I2009
sI52781
I2009
sI85550
I2011
sI21783
I2006
sI7272
I2004
sI54554
I2009
sI54556
I2009
sI21789
I2006
sI54562
I2009
sI84743
I2011
sI54579
I2009
sI63710
I2009
sI21815
I2006
sI21816
I2006
sI54586
I2009
sI95655
I2011
sI93473
I2011
sI21839
I2006
sI21843
I2006
sI80100
I2011
sI54621
I2009
sI21854
I2006
sI21855
I2006
sI69179
I2010
sI21862
I2006
sI87399
I2011
sI54635
I2009
sI87404
I2011
sI50920
I2009
sI54640
I2009
sI85566
I2011
sI21880
I2006
sI87418
I2011
sI21884
I2006
sI47338
I2008
sI54654
I2009
sI3648
I2002
sI47339
I2008
sI21893
I2006
sI21894
I2006
sI69185
I2010
sI47340
I2008
sI54668
I2009
sI69186
I2010
sI87438
I2011
sI54672
I2009
sI54673
I2009
sI87444
I2011
sI54678
I2009
sI58265
I2009
sI21917
I2006
sI21920
I2006
sI21921
I2006
sI91035
I2011
sI87461
I2011
sI63729
I2009
sI101959
I2012
sI70196
I2010
sI87481
I2011
sI36426
I2008
sI21950
I2006
sI21951
I2006
sI54720
I2009
sI3659
I2002
sI21960
I2006
sI54730
I2009
sI9122
I2004
sI87502
I2011
sI87504
I2011
sI21974
I2006
sI87512
I2011
sI21977
I2006
sI21978
I2006
sI21980
I2006
sI54750
I2009
sI58277
I2009
sI21988
I2006
sI21989
I2006
sI22000
I2006
sI54769
I2009
sI22002
I2006
sI47358
I2008
sI87930
I2011
sI54775
I2009
sI54776
I2009
sI87545
I2011
sI22010
I2006
sI22016
I2006
sI22017
I2006
sI22019
I2006
sI22020
I2006
sI22021
I2006
sI22027
I2006
sI22029
I2006
sI22030
I2006
sI22031
I2006
sI54803
I2009
sI54810
I2009
sI22044
I2006
sI77113
I2011
sI54820
I2009
sI54821
I2009
sI54825
I2009
sI22059
I2006
sI91058
I2011
sI54832
I2009
sI22069
I2006
sI22072
I2006
sI87609
I2011
sI22074
I2006
sI52831
I2009
sI87612
I2011
sI22077
I2006
sI22078
I2006
sI22082
I2006
sI22083
I2006
sI22084
I2006
sI22085
I2006
sI87625
I2011
sI91063
I2011
sI69218
I2010
sI87639
I2011
sI22105
I2006
sI87644
I2011
sI58298
I2009
sI87648
I2011
sI22113
I2006
sI22115
I2006
sI22120
I2006
sI87658
I2011
sI87659
I2011
sI87660
I2011
sI87661
I2011
sI87662
I2011
sI87663
I2011
sI87664
I2011
sI87665
I2011
sI22130
I2006
sI22133
I2006
sI22151
I2006
sI22152
I2006
sI22156
I2006
sI54925
I2009
sI54926
I2009
sI87696
I2011
sI54929
I2009
sI87700
I2011
sI87701
I2011
sI70634
I2010
sI69231
I2010
sI22175
I2006
sI22177
I2006
sI54952
I2009
sI22185
I2006
sI87722
I2011
sI54957
I2009
sI74696
I2011
sI85620
I2011
sI22202
I2006
sI54971
I2009
sI87742
I2011
sI22207
I2006
sI22208
I2006
sI54977
I2009
sI54978
I2009
sI54981
I2009
sI87752
I2011
sI87753
I2011
sI87756
I2011
sI22221
I2006
sI22222
I2006
sI22224
I2006
sI22225
I2006
sI22228
I2006
sI85625
I2011
sI55000
I2009
sI87771
I2011
sI55004
I2009
sI55006
I2009
sI87775
I2011
sI22240
I2006
sI55010
I2009
sI22244
I2006
sI22253
I2006
sI87795
I2011
sI87801
I2011
sI69247
I2010
sI87805
I2011
sI87807
I2011
sI87808
I2011
sI55042
I2009
sI55053
I2009
sI22288
I2006
sI22289
I2006
sI55058
I2009
sI116125
I2012
sI55065
I2009
sI87834
I2011
sI87835
I2011
sI87838
I2011
sI47408
I2008
sI87846
I2011
sI22312
I2006
sI22315
I2006
sI22317
I2006
sI22318
I2006
sI87858
I2011
sI55093
I2009
sI55094
I2009
sI55095
I2009
sI87865
I2011
sI87866
I2011
sI55102
I2009
sI87872
I2011
sI87879
I2011
sI22346
I2006
sI87884
I2011
sI91803
I2011
sI80184
I2011
sI22354
I2006
sI22359
I2006
sI87899
I2011
sI4018
I2002
sI55136
I2009
sI55137
I2009
sI55138
I2009
sI22371
I2006
sI55140
I2009
sI55150
I2009
sI87921
I2011
sI87923
I2011
sI22391
I2006
sI55160
I2009
sI22393
I2006
sI22394
I2006
sI80191
I2011
sI22396
I2006
sI22397
I2006
sI87934
I2011
sI87935
I2011
sI55171
I2009
sI22410
I2006
sI22414
I2006
sI55185
I2009
sI55194
I2009
sI87966
I2011
sI87968
I2011
sI55204
I2009
sI55208
I2009
sI55209
I2009
sI55211
I2009
sI55218
I2009
sI22451
I2006
sI71671
I2010
sI55228
I2009
sI88001
I2011
sI55235
I2009
sI88004
I2011
sI88005
I2011
sI88006
I2011
sI55244
I2009
sI55246
I2009
sI55250
I2009
sI88025
I2011
sI55262
I2009
sI55265
I2009
sI22498
I2006
sI22501
I2006
sI88051
I2011
sI92677
I2011
sI55288
I2009
sI88057
I2011
sI55293
I2009
sI55294
I2009
sI55295
I2009
sI9216
I2004
sI55301
I2009
sI55303
I2009
sI55304
I2009
sI22542
I2006
sI55311
I2009
sI22545
I2006
sI88082
I2011
sI55315
I2009
sI55316
I2009
sI22550
I2006
sI55319
I2009
sI22553
I2006
sI22556
I2006
sI84768
I2011
sI88097
I2011
sI14683
I2005
sI88101
I2011
sI6207
I2003
sI55344
I2009
sI22578
I2006
sI22579
I2006
sI55348
I2009
sI22583
I2006
sI22584
I2006
sI88122
I2011
sI52917
I2009
sI88129
I2011
sI22595
I2006
sI55365
I2009
sI22598
I2006
sI55371
I2009
sI22609
I2006
sI55378
I2009
sI22620
I2006
sI55389
I2009
sI22622
I2006
sI22623
I2006
sI22624
I2006
sI22626
I2006
sI22628
I2006
sI22629
I2006
sI55310
I2009
sI55413
I2009
sI55414
I2009
sI22650
I2006
sI55422
I2009
sI22655
I2006
sI55425
I2009
sI55427
I2009
sI22661
I2006
sI52930
I2009
sI22704
I2006
sI52936
I2009
sI20169
I2006
sI22714
I2006
sI22716
I2006
sI22726
I2006
sI22729
I2006
sI69498
I2010
sI22741
I2006
sI22744
I2006
sI22745
I2006
sI55514
I2009
sI55518
I2009
sI22753
I2006
sI22754
I2006
sI55527
I2009
sI47484
I2008
sI55530
I2009
sI22763
I2006
sI22767
I2006
sI55536
I2009
sI22774
I2006
sI91177
I2011
sI22777
I2006
sI72773
I2010
sI55551
I2009
sI22784
I2006
sI22785
I2006
sI86958
I2011
sI22795
I2006
sI22800
I2006
sI22805
I2006
sI22806
I2006
sI22809
I2006
sI22817
I2006
sI22818
I2006
sI22819
I2006
sI22821
I2006
sI22822
I2006
sI22823
I2006
sI55596
I2009
sI55598
I2009
sI22847
I2006
sI22848
I2006
sI22849
I2006
sI22850
I2006
sI96651
I2011
sI22852
I2006
sI96652
I2011
sI22858
I2006
sI88397
I2011
sI22865
I2006
sI55634
I2009
sI55639
I2009
sI22875
I2006
sI55645
I2009
sI22881
I2006
sI55652
I2009
sI22887
I2006
sI84779
I2011
sI88430
I2011
sI85736
I2011
sI22901
I2006
sI22902
I2006
sI88442
I2011
sI55675
I2009
sI22909
I2006
sI88446
I2011
sI22911
I2006
sI22915
I2006
sI55684
I2009
sI88455
I2011
sI55688
I2009
sI55689
I2009
sI55691
I2009
sI22924
I2006
sI55694
I2009
sI55695
I2009
sI22930
I2006
sI74819
I2011
sI88468
I2011
sI22936
I2006
sI22942
I2006
sI22944
I2006
sI110968
I2012
sI55723
I2009
sI88495
I2011
sI55730
I2009
sI22963
I2006
sI96670
I2011
sI22969
I2006
sI22970
I2006
sI55741
I2009
sI88752
I2011
sI88511
I2011
sI22977
I2006
sI22978
I2006
sI55747
I2009
sI55751
I2009
sI55752
I2009
sI55756
I2009
sI55758
I2009
sI88527
I2011
sI22993
I2006
sI55762
I2009
sI55765
I2009
sI102137
I2012
sI23002
I2006
sI55771
I2009
sI88543
I2011
sI55777
I2009
sI55780
I2009
sI74833
I2011
sI88552
I2011
sI55785
I2009
sI23022
I2006
sI88559
I2011
sI23030
I2006
sI88567
I2011
sI55802
I2009
sI23036
I2006
sI55805
I2009
sI55809
I2009
sI88578
I2011
sI55811
I2009
sI23044
I2006
sI88581
I2011
sI88582
I2011
sI73873
I2011
sI55819
I2009
sI88588
I2011
sI91224
I2011
sI23059
I2006
sI23060
I2006
sI23062
I2006
sI23063
I2006
sI55841
I2009
sI74843
I2011
sI55849
I2009
sI97879
I2012
sI23084
I2006
sI55854
I2009
sI88623
I2011
sI55857
I2009
sI23094
I2006
sI55871
I2009
sI40050
I2008
sI23111
I2006
sI55883
I2009
sI88652
I2011
sI23117
I2006
sI23119
I2006
sI23120
I2006
sI76802
I2011
sI23122
I2006
sI88659
I2011
sI88660
I2011
sI85774
I2011
sI23126
I2006
sI55896
I2009
sI23134
I2006
sI23135
I2006
sI23136
I2006
sI88673
I2011
sI80315
I2011
sI88677
I2011
sI74855
I2011
sI23148
I2006
sI55917
I2009
sI55918
I2009
sI55920
I2009
sI23153
I2006
sI23154
I2006
sI23157
I2006
sI23159
I2006
sI23161
I2006
sI88699
I2011
sI55933
I2009
sI97882
I2012
sI88712
I2011
sI9324
I2004
sI23179
I2006
sI55948
I2009
sI55949
I2009
sI55951
I2009
sI55953
I2009
sI23187
I2006
sI55956
I2009
sI23189
I2006
sI55958
I2009
sI88727
I2011
sI55961
I2009
sI23194
I2006
sI55969
I2009
sI55972
I2009
sI55976
I2009
sI88745
I2011
sI23210
I2006
sI23214
I2006
sI55984
I2009
sI23220
I2006
sI23222
I2006
sI55992
I2009
sI23232
I2006
sI88774
I2011
sI23241
I2006
sI23242
I2006
sI23247
I2006
sI56020
I2009
sI23254
I2006
sI91809
I2011
sI88793
I2011
sI23258
I2006
sI63951
I2009
sI88799
I2011
sI88800
I2011
sI63952
I2009
sI23267
I2006
sI63953
I2009
sI88809
I2011
sI69516
I2010
sI56043
I2009
sI23279
I2006
sI23280
I2006
sI88819
I2011
sI56052
I2009
sI88823
I2011
sI23289
I2006
sI23290
I2006
sI47694
I2008
sI63957
I2009
sI56067
I2009
sI56068
I2009
sI63958
I2009
sI56070
I2009
sI56072
I2009
sI23306
I2006
sI96727
I2011
sI23309
I2006
sI23313
I2006
sI88853
I2011
sI56089
I2009
sI53039
I2009
sI96730
I2011
sI56094
I2009
sI9349
I2004
sI85808
I2011
sI56098
I2009
sI96731
I2011
sI23334
I2006
sI52060
I2009
sI23337
I2006
sI23338
I2006
sI88878
I2011
sI23354
I2006
sI80462
I2011
sI23358
I2006
sI23362
I2006
sI23365
I2006
sI113121
I2012
sI23369
I2006
sI23376
I2006
sI56145
I2009
sI56146
I2009
sI88915
I2011
sI23380
I2006
sI23381
I2006
sI23382
I2006
sI88919
I2011
sI56154
I2009
sI91279
I2011
sI23391
I2006
sI80358
I2011
sI88936
I2011
sI88938
I2011
sI23405
I2006
sI56174
I2009
sI23408
I2006
sI56177
I2009
sI56178
I2009
sI56179
I2009
sI56182
I2009
sI23422
I2006
sI23426
I2006
sI56205
I2009
sI76971
I2011
sI56214
I2009
sI56216
I2009
sI23449
I2006
sI23456
I2006
sI56225
I2009
sI56227
I2009
sI23463
I2006
sI23464
I2006
sI23465
I2006
sI56237
I2009
sI63987
I2009
sI23478
I2006
sI56247
I2009
sI23483
I2006
sI89023
I2011
sI67341
I2010
sI80374
I2011
sI95084
I2011
sI23500
I2006
sI56270
I2009
sI56271
I2009
sI23505
I2006
sI56275
I2009
sI59077
I2009
sI56278
I2009
sI56279
I2009
sI23513
I2006
sI56282
I2009
sI56286
I2009
sI56289
I2009
sI56290
I2009
sI56292
I2009
sI56294
I2009
sI56295
I2009
sI56296
I2009
sI89065
I2011
sI56300
I2009
sI23536
I2006
sI23539
I2006
sI89076
I2011
sI56310
I2009
sI23543
I2006
sI89087
I2011
sI23556
I2006
sI53078
I2009
sI89097
I2011
sI56330
I2009
sI89101
I2011
sI89102
I2011
sI89103
I2011
sI85848
I2011
sI56338
I2009
sI56340
I2009
sI78255
I2011
sI89113
I2011
sI56346
I2009
sI83711
I2011
sI23595
I2006
sI89135
I2011
sI89136
I2011
sI56371
I2009
sI96777
I2011
sI23608
I2006
sI23609
I2006
sI89147
I2011
sI56385
I2009
sI23619
I2006
sI47628
I2008
sI56394
I2009
sI23631
I2006
sI23633
I2006
sI89170
I2011
sI3939
I2002
sI56405
I2009
sI89176
I2011
sI23641
I2006
sI89180
I2011
sI23645
I2006
sI23646
I2006
sI56416
I2009
sI56418
I2009
sI56419
I2009
sI56421
I2009
sI114265
I2012
sI47633
I2008
sI88078
I2011
sI56427
I2009
sI56428
I2009
sI95716
I2011
sI91325
I2011
sI56438
I2009
sI56441
I2009
sI23675
I2006
sI23677
I2006
sI23681
I2006
sI89218
I2011
sI91329
I2011
sI85868
I2011
sI23690
I2006
sI96791
I2011
sI23692
I2006
sI23693
I2006
sI23694
I2006
sI23695
I2006
sI56466
I2009
sI56467
I2009
sI85870
I2011
sI23708
I2006
sI23711
I2006
sI23719
I2006
sI89256
I2011
sI14877
I2005
sI69491
I2010
sI23733
I2006
sI69492
I2010
sI91594
I2011
sI64032
I2009
sI89286
I2011
sI89287
I2011
sI23752
I2006
sI23759
I2006
sI85880
I2011
sI89298
I2011
sI23765
I2006
sI23766
I2006
sI23767
I2006
sI23768
I2006
sI23769
I2006
sI89308
I2011
sI53114
I2009
sI89311
I2011
sI23776
I2006
sI89313
I2011
sI80423
I2011
sI89324
I2011
sI23790
I2006
sI23793
I2006
sI89331
I2011
sI89332
I2011
sI89333
I2011
sI89334
I2011
sI23802
I2006
sI89340
I2011
sI89341
I2011
sI89342
I2011
sI89343
I2011
sI14892
I2005
sI23829
I2006
sI23832
I2006
sI72808
I2010
sI23836
I2006
sI23837
I2006
sI23839
I2006
sI69510
I2010
sI23846
I2006
sI113201
I2012
sI23849
I2006
sI23850
I2006
sI23851
I2006
sI23852
I2006
sI89391
I2011
sI23864
I2006
sI96820
I2011
sI23873
I2006
sI89410
I2011
sI23878
I2006
sI89416
I2011
sI3980
I2002
sI89421
I2011
sI23887
I2006
sI102286
I2012
sI23895
I2006
sI23897
I2006
sI73046
I2010
sI23903
I2006
sI23904
I2006
sI69520
I2010
sI23908
I2006
sI23909
I2006
sI23913
I2006
sI23914
I2006
sI23918
I2006
sI89457
I2011
sI23922
I2006
sI72811
I2010
sI23924
I2006
sI23925
I2006
sI91369
I2011
sI23929
I2006
sI64063
I2009
sI89471
I2011
sI77176
I2011
sI67356
I2010
sI20376
I2006
sI23956
I2006
sI23964
I2006
sI80453
I2011
sI53715
I2009
sI69533
I2010
sI9325
I2004
sI47689
I2008
sI24000
I2006
sI80459
I2011
sI42231
I2008
sI96845
I2011
sI42232
I2008
sI24021
I2006
sI24032
I2006
sI47696
I2008
sI89573
I2011
sI24039
I2006
sI24045
I2006
sI4008
I2002
sI24059
I2006
sI89601
I2011
sI24068
I2006
sI24071
I2006
sI24073
I2006
sI24074
I2006
sI24077
I2006
sI85933
I2011
sI24080
I2006
sI24081
I2006
sI53166
I2009
sI89622
I2011
sI89623
I2011
sI24090
I2006
sI24091
I2006
sI56862
I2009
sI9477
I2004
sI89632
I2011
sI75015
I2011
sI24109
I2006
sI24110
I2006
sI56880
I2009
sI69555
I2010
sI24118
I2006
sI75017
I2011
sI24121
I2006
sI89660
I2011
sI56894
I2009
sI69557
I2010
sI89664
I2011
sI89667
I2011
sI56900
I2009
sI56901
I2009
sI89672
I2011
sI56905
I2009
sI56907
I2009
sI56908
I2009
sI89677
I2011
sI56911
I2009
sI24145
I2006
sI85912
I2011
sI89683
I2011
sI56916
I2009
sI24149
I2006
sI56918
I2009
sI89688
I2011
sI89689
I2011
sI56922
I2009
sI89691
I2011
sI24158
I2006
sI24159
I2006
sI24160
I2006
sI90971
I2011
sI89700
I2011
sI56936
I2009
sI24170
I2006
sI24172
I2006
sI89710
I2011
sI56943
I2009
sI79859
I2011
sI9534
I2004
sI56951
I2009
sI24184
I2006
sI56954
I2009
sI36799
I2008
sI56956
I2009
sI89728
I2011
sI87669
I2011
sI89736
I2011
sI91415
I2011
sI89741
I2011
sI56974
I2009
sI69571
I2010
sI56982
I2009
sI7353
I2004
sI96880
I2011
sI56994
I2009
sI56995
I2009
sI95735
I2011
sI89777
I2011
sI57010
I2009
sI89780
I2011
sI57013
I2009
sI57016
I2009
sI57024
I2009
sI89796
I2011
sI89799
I2011
sI89806
I2011
sI75043
I2011
sI57047
I2009
sI89823
I2011
sI64123
I2009
sI57063
I2009
sI89835
I2011
sI91432
I2011
sI57074
I2009
sI57075
I2009
sI73915
I2011
sI89846
I2011
sI57082
I2009
sI95868
I2011
sI57084
I2009
sI57085
I2009
sI89857
I2011
sI89868
I2011
sI72176
I2010
sI57123
I2009
sI77190
I2011
sI89895
I2011
sI57131
I2009
sI89901
I2011
sI57140
I2009
sI57141
I2009
sI57142
I2009
sI24378
I2006
sI57148
I2009
sI57149
I2009
sI57151
I2009
sI57152
I2009
sI57153
I2009
sI80524
I2011
sI57162
I2009
sI57163
I2009
sI42296
I2008
sI57170
I2009
sI57171
I2009
sI95741
I2011
sI91451
I2011
sI57189
I2009
sI57205
I2009
sI57210
I2009
sI24443
I2006
sI57214
I2009
sI57218
I2009
sI57220
I2009
sI24454
I2006
sI24455
I2006
sI57231
I2009
sI90001
I2011
sI57234
I2009
sI57235
I2009
sI57236
I2009
sI57238
I2009
sI57239
I2009
sI57240
I2009
sI57241
I2009
sI57242
I2009
sI24479
I2006
sI24483
I2006
sI57255
I2009
sI57258
I2009
sI58695
I2009
sI24494
I2006
sI24496
I2006
sI24497
I2006
sI57268
I2009
sI57274
I2009
sI80543
I2011
sI90048
I2011
sI90051
I2011
sI24521
I2006
sI24522
I2006
sI57291
I2009
sI57296
I2009
sI24531
I2006
sI24533
I2006
sI57304
I2009
sI42319
I2008
sI57308
I2009
sI24544
I2006
sI57314
I2009
sI90083
I2011
sI90085
I2011
sI42321
I2008
sI57323
I2009
sI90092
I2011
sI75090
I2011
sI90099
I2011
sI90100
I2011
sI86014
I2011
sI24566
I2007
sI57335
I2009
sI57336
I2009
sI24572
I2007
sI57341
I2009
sI24574
I2007
sI90112
I2011
sI57347
I2009
sI57349
I2009
sI57352
I2009
sI24587
I2007
sI24590
I2007
sI24592
I2007
sI24593
I2007
sI24602
I2007
sI24604
I2007
sI24605
I2007
sI24606
I2007
sI24607
I2007
sI57378
I2009
sI57380
I2009
sI90154
I2011
sI102407
I2012
sI90162
I2011
sI90163
I2011
sI90170
I2011
sI24636
I2007
sI24637
I2007
sI24638
I2007
sI90181
I2011
sI90187
I2011
sI24660
I2007
sI24661
I2007
sI66289
I2010
sI24676
I2007
sI24677
I2007
sI24681
I2007
sI24682
I2007
sI24688
I2007
sI57466
I2009
sI57469
I2009
sI57470
I2009
sI57474
I2009
sI57475
I2009
sI76543
I2011
sI24714
I2007
sI24716
I2007
sI57487
I2009
sI24721
I2007
sI57491
I2009
sI24725
I2007
sI57494
I2009
sI53273
I2009
sI24729
I2007
sI102426
I2012
sI57507
I2009
sI57508
I2009
sI96967
I2011
sI57517
I2009
sI86045
I2011
sI57521
I2009
sI57525
I2009
sI57526
I2009
sI57533
I2009
sI57537
I2009
sI24776
I2007
sI57545
I2009
sI57546
I2009
sI57547
I2009
sI45992
I2008
sI57550
I2009
sI86051
I2011
sI57558
I2009
sI24791
I2007
sI69668
I2010
sI24808
I2007
sI24809
I2007
sI58752
I2009
sI24836
I2007
sI24837
I2007
sI24838
I2007
sI57615
I2009
sI24856
I2007
sI24857
I2007
sI24880
I2007
sI24881
I2007
sI24882
I2007
sI57656
I2009
sI75146
I2011
sI57662
I2009
sI57672
I2009
sI81573
I2011
sI57686
I2009
sI24932
I2007
sI57701
I2009
sI24937
I2007
sI57707
I2009
sI24941
I2007
sI86077
I2011
sI24945
I2007
sI24946
I2007
sI24947
I2007
sI24957
I2007
sI24961
I2007
sI24972
I2007
sI24976
I2007
sI91544
I2011
sI97009
I2011
sI25004
I2007
sI25005
I2007
sI25006
I2007
sI57775
I2009
sI57777
I2009
sI57778
I2009
sI57780
I2009
sI25013
I2007
sI25015
I2007
sI25016
I2007
sI25019
I2007
sI25020
I2007
sI92039
I2011
sI97013
I2011
sI67392
I2010
sI64246
I2009
sI9633
I2004
sI25033
I2007
sI57802
I2009
sI97015
I2011
sI90580
I2011
sI69710
I2010
sI59742
I2009
sI25064
I2007
sI57833
I2009
sI25066
I2007
sI91560
I2011
sI90610
I2011
sI25076
I2007
sI85943
I2011
sI25080
I2007
sI25081
I2007
sI90618
I2011
sI25083
I2007
sI41207
I2008
sI47872
I2008
sI25090
I2007
sI90628
I2011
sI69718
I2010
sI57864
I2009
sI25098
I2007
sI53335
I2009
sI90637
I2011
sI25102
I2007
sI25103
I2007
sI69721
I2010
sI25113
I2007
sI25114
I2007
sI25116
I2007
sI25118
I2007
sI25119
I2007
sI90658
I2011
sI57893
I2009
sI57895
I2009
sI57897
I2009
sI25130
I2007
sI25131
I2007
sI95765
I2011
sI90672
I2011
sI80648
I2011
sI58804
I2009
sI25147
I2007
sI90690
I2011
sI57928
I2009
sI47884
I2008
sI91575
I2011
sI25166
I2007
sI63889
I2009
sI57937
I2009
sI25174
I2007
sI25175
I2007
sI25177
I2007
sI90717
I2011
sI36965
I2008
sI90722
I2011
sI4198
I2002
sI57967
I2009
sI95750
I2011
sI57969
I2009
sI57971
I2009
sI9662
I2004
sI25206
I2007
sI64276
I2009
sI57979
I2009
sI25213
I2007
sI25215
I2007
sI90754
I2011
sI4203
I2002
sI90756
I2011
sI64278
I2009
sI90758
I2011
sI25226
I2007
sI57995
I2009
sI25231
I2007
sI90768
I2011
sI58002
I2009
sI75204
I2011
sI58011
I2009
sI97050
I2011
sI90783
I2011
sI69744
I2010
sI97051
I2011
sI58020
I2009
sI58021
I2009
sI25254
I2007
sI9671
I2004
sI25260
I2007
sI25261
I2007
sI25262
I2007
sI90800
I2011
sI66309
I2010
sI58038
I2009
sI25272
I2007
sI58043
I2009
sI58044
I2009
sI58045
I2009
sI58046
I2009
sI90816
I2011
sI58066
I2009
sI90841
I2011
sI58076
I2009
sI58078
I2009
sI58080
I2009
sI58081
I2009
sI58082
I2009
sI58083
I2009
sI58084
I2009
sI58085
I2009
sI58087
I2009
sI58088
I2009
sI69756
I2010
sI58090
I2009
sI25325
I2007
sI25326
I2007
sI90868
I2011
sI25333
I2007
sI25335
I2007
sI58104
I2009
sI90873
I2011
sI58108
I2009
sI58109
I2009
sI58110
I2009
sI25354
I2007
sI25355
I2007
sI36994
I2008
sI25359
I2007
sI58131
I2009
sI25366
I2007
sI25369
I2007
sI58138
I2009
sI25371
I2007
sI25374
I2007
sI58144
I2009
sI90913
I2011
sI25381
I2007
sI25382
I2007
sI58151
I2009
sI25384
I2007
sI25385
I2007
sI25386
I2007
sI58155
I2009
sI58157
I2009
sI25390
I2007
sI25392
I2007
sI25393
I2007
sI25394
I2007
sI25395
I2007
sI25398
I2007
sI25399
I2007
sI75020
I2011
sI25401
I2007
sI25402
I2007
sI87045
I2011
sI44491
I2008
sI64309
I2009
sI25410
I2007
sI69771
I2010
sI25414
I2007
sI25416
I2007
sI90958
I2011
sI90959
I2011
sI58192
I2009
sI58195
I2009
sI58196
I2009
sI58197
I2009
sI47929
I2008
sI58200
I2009
sI58201
I2009
sI25435
I2007
sI25439
I2007
sI90977
I2011
sI25442
I2007
sI58212
I2009
sI90981
I2011
sI69777
I2010
sI58216
I2009
sI90985
I2011
sI90986
I2011
sI58220
I2009
sI80701
I2011
sI25457
I2007
sI58226
I2009
sI90995
I2011
sI25462
I2007
sI25463
I2007
sI58234
I2009
sI25469
I2007
sI58238
I2009
sI58241
I2009
sI91010
I2011
sI58244
I2009
sI25479
I2007
sI58250
I2009
sI58251
I2009
sI25487
I2007
sI25493
I2007
sI58262
I2009
sI44494
I2008
sI25497
I2007
sI58267
I2009
sI93595
I2011
sI25502
I2007
sI58272
I2009
sI9712
I2004
sI25506
I2007
sI25507
I2007
sI58276
I2009
sI25509
I2007
sI58282
I2009
sI58283
I2009
sI58285
I2009
sI58290
I2009
sI25524
I2007
sI25525
I2007
sI58294
I2009
sI58295
I2009
sI58296
I2009
sI58297
I2009
sI25530
I2007
sI25531
I2007
sI58301
I2009
sI91081
I2011
sI64333
I2009
sI25552
I2007
sI25560
I2007
sI25561
I2007
sI25564
I2007
sI91642
I2011
sI25567
I2007
sI91119
I2011
sI91121
I2011
sI91124
I2011
sI91128
I2011
sI91129
I2011
sI91130
I2011
sI25597
I2007
sI89234
I2011
sI80505
I2011
sI25611
I2007
sI25612
I2007
sI25614
I2007
sI91161
I2011
sI25627
I2007
sI25630
I2007
sI75269
I2011
sI25641
I2007
sI91186
I2011
sI25651
I2007
sI25653
I2007
sI58427
I2009
sI82689
I2011
sI91198
I2011
sI25670
I2007
sI58440
I2009
sI102583
I2012
sI91212
I2011
sI91213
I2011
sI58450
I2009
sI92510
I2011
sI25685
I2007
sI69817
I2010
sI58456
I2009
sI91230
I2011
sI58480
I2009
sI58491
I2009
sI25726
I2007
sI91669
I2011
sI25731
I2007
sI58502
I2009
sI58504
I2009
sI91276
I2011
sI58509
I2009
sI58511
I2009
sI91672
I2011
sI58515
I2009
sI58519
I2009
sI25753
I2007
sI25755
I2007
sI25769
I2007
sI91307
I2011
sI58541
I2009
sI58542
I2009
sI25776
I2007
sI58546
I2009
sI91318
I2011
sI91320
I2011
sI91324
I2011
sI69834
I2010
sI91327
I2011
sI58561
I2009
sI91330
I2011
sI58563
I2009
sI91332
I2011
sI91333
I2011
sI118988
I2012
sI25803
I2007
sI25804
I2007
sI25810
I2007
sI58583
I2009
sI58586
I2009
sI25828
I2007
sI25830
I2007
sI25833
I2007
sI25835
I2007
sI25837
I2007
sI97149
I2011
sI25849
I2007
sI58622
I2009
sI20693
I2006
sI25856
I2007
sI91395
I2011
sI25871
I2007
sI25875
I2007
sI25877
I2007
sI58647
I2009
sI91417
I2011
sI58652
I2009
sI25886
I2007
sI91424
I2011
sI92263
I2011
sI58659
I2009
sI58660
I2009
sI58662
I2009
sI58663
I2009
sI25896
I2007
sI80776
I2011
sI58678
I2009
sI80777
I2011
sI25913
I2007
sI25914
I2007
sI25915
I2007
sI91455
I2011
sI58688
I2009
sI102624
I2012
sI25923
I2007
sI58692
I2009
sI58693
I2009
sI25927
I2007
sI48012
I2008
sI58698
I2009
sI91468
I2011
sI25939
I2007
sI25941
I2007
sI91484
I2011
sI25949
I2007
sI91486
I2011
sI58719
I2009
sI58721
I2009
sI58724
I2009
sI58729
I2009
sI58730
I2009
sI58732
I2009
sI91502
I2011
sI25967
I2007
sI25968
I2007
sI91505
I2011
sI91506
I2011
sI91508
I2011
sI25973
I2007
sI25975
I2007
sI91513
I2011
sI58750
I2009
sI91519
I2011
sI25984
I2007
sI58753
I2009
sI91522
I2011
sI69867
I2010
sI58759
I2009
sI58760
I2009
sI25999
I2007
sI26008
I2007
sI26009
I2007
sI58780
I2009
sI97178
I2011
sI26016
I2007
sI26018
I2007
sI26022
I2007
sI26024
I2007
sI26026
I2007
sI26029
I2007
sI26030
I2007
sI26032
I2007
sI26034
I2007
sI26036
I2007
sI58805
I2009
sI58806
I2009
sI58807
I2009
sI26040
I2007
sI58809
I2009
sI58810
I2009
sI26044
I2007
sI91722
I2011
sI26046
I2007
sI58816
I2009
sI91588
I2011
sI26058
I2007
sI91597
I2011
sI26065
I2007
sI26069
I2007
sI91607
I2011
sI64420
I2009
sI26074
I2007
sI26075
I2007
sI91612
I2011
sI58845
I2009
sI26081
I2007
sI58853
I2009
sI91427
I2011
sI26089
I2007
sI91630
I2011
sI26096
I2007
sI26098
I2007
sI53502
I2009
sI58874
I2009
sI91644
I2011
sI26111
I2007
sI58882
I2009
sI80811
I2011
sI58887
I2009
sI26124
I2007
sI26127
I2007
sI26128
I2007
sI91667
I2011
sI26133
I2007
sI91671
I2011
sI72188
I2010
sI26137
I2007
sI58906
I2009
sI58907
I2009
sI58910
I2009
sI58911
I2009
sI58912
I2009
sI91683
I2011
sI58920
I2009
sI26161
I2007
sI58933
I2009
sI26166
I2007
sI26167
I2007
sI26170
I2007
sI26173
I2007
sI26176
I2007
sI91716
I2011
sI91719
I2011
sI91721
I2011
sI58954
I2009
sI58957
I2009
sI53517
I2009
sI58967
I2009
sI58968
I2009
sI58972
I2009
sI58976
I2009
sI58979
I2009
sI58980
I2009
sI58981
I2009
sI58982
I2009
sI26215
I2007
sI26219
I2007
sI26220
I2007
sI97213
I2011
sI26225
I2007
sI58995
I2009
sI97214
I2011
sI58999
I2009
sI26232
I2007
sI64447
I2009
sI91778
I2011
sI59011
I2009
sI91781
I2011
sI91782
I2011
sI91786
I2011
sI91787
I2011
sI64450
I2009
sI59027
I2009
sI26261
I2007
sI26262
I2007
sI26263
I2007
sI59033
I2009
sI59035
I2009
sI91804
I2011
sI26269
I2007
sI59038
I2009
sI26271
I2007
sI91808
I2011
sI26273
I2007
sI59042
I2009
sI91811
I2011
sI91812
I2011
sI59045
I2009
sI59046
I2009
sI91815
I2011
sI59049
I2009
sI59050
I2009
sI91819
I2011
sI26284
I2007
sI26286
I2007
sI26288
I2007
sI97224
I2011
sI91832
I2011
sI91838
I2011
sI26303
I2007
sI91840
I2011
sI26309
I2007
sI26312
I2007
sI59082
I2009
sI69922
I2010
sI97229
I2011
sI84095
I2011
sI59099
I2009
sI26333
I2007
sI59102
I2009
sI59103
I2009
sI26336
I2007
sI97232
I2011
sI26338
I2007
sI26339
I2007
sI59108
I2009
sI97335
I2011
sI80849
I2011
sI59113
I2009
sI113619
I2012
sI71753
I2010
sI26362
I2007
sI42624
I2008
sI26371
I2007
sI91910
I2011
sI26379
I2007
sI26381
I2007
sI80856
I2011
sI53550
I2009
sI75397
I2011
sI80859
I2011
sI59181
I2009
sI91952
I2011
sI59190
I2009
sI26425
I2007
sI26436
I2007
sI26442
I2007
sI59226
I2009
sI59233
I2009
sI53563
I2009
sI92004
I2011
sI26469
I2007
sI75409
I2011
sI26478
I2007
sI26482
I2007
sI26484
I2007
sI59254
I2009
sI59258
I2009
sI92030
I2011
sI59263
I2009
sI59264
I2009
sI59265
I2009
sI26498
I2007
sI59030
I2009
sI26502
I2007
sI4417
I2002
sI59274
I2009
sI91799
I2011
sI59281
I2009
sI92050
I2011
sI91801
I2011
sI59288
I2009
sI26522
I2007
sI26525
I2007
sI59297
I2009
sI26531
I2007
sI26532
I2007
sI59301
I2009
sI59302
I2009
sI59303
I2009
sI26536
I2007
sI26540
I2007
sI59037
I2009
sI92084
I2011
sI91806
I2011
sI59318
I2009
sI92089
I2011
sI59039
I2009
sI92092
I2011
sI59325
I2009
sI59326
I2009
sI26559
I2007
sI92096
I2011
sI59329
I2009
sI59330
I2009
sI59331
I2009
sI92100
I2011
sI59333
I2009
sI59041
I2009
sI26568
I2007
sI26570
I2007
sI26573
I2007
sI26574
I2007
sI26577
I2007
sI37198
I2008
sI80889
I2011
sI59354
I2009
sI59355
I2009
sI91813
I2011
sI59361
I2009
sI59364
I2009
sI89267
I2011
sI92134
I2011
sI53585
I2009
sI92136
I2011
sI97276
I2011
sI95814
I2011
sI4435
I2002
sI59381
I2009
sI59382
I2009
sI59383
I2009
sI59384
I2009
sI53588
I2009
sI57625
I2009
sI69973
I2010
sI59393
I2009
sI59394
I2009
sI69518
I2010
sI92175
I2011
sI26645
I2007
sI102745
I2012
sI92186
I2011
sI59420
I2009
sI53594
I2009
sI59423
I2009
sI92194
I2011
sI26659
I2007
sI64518
I2009
sI59430
I2009
sI59432
I2009
sI59435
I2009
sI26668
I2007
sI59437
I2009
sI59438
I2009
sI4446
I2002
sI59446
I2009
sI92215
I2011
sI26687
I2007
sI59459
I2009
sI92229
I2011
sI26697
I2007
sI92242
I2011
sI26709
I2007
sI92246
I2011
sI37220
I2008
sI59482
I2009
sI92255
I2011
sI82012
I2011
sI92258
I2011
sI9915
I2004
sI26725
I2007
sI59494
I2009
sI26727
I2007
sI92265
I2011
sI92266
I2011
sI26731
I2007
sI26732
I2007
sI26733
I2007
sI92270
I2011
sI59504
I2009
sI26739
I2007
sI26742
I2007
sI59511
I2009
sI92280
I2011
sI97300
I2011
sI26747
I2007
sI92284
I2011
sI26750
I2007
sI64533
I2009
sI92291
I2011
sI92293
I2011
sI26758
I2007
sI59527
I2009
sI59812
I2009
sI59533
I2009
sI92305
I2011
sI26770
I2007
sI65268
I2010
sI92311
I2011
sI26779
I2007
sI59550
I2009
sI26783
I2007
sI26785
I2007
sI97307
I2011
sI26789
I2007
sI26790
I2007
sI59559
I2009
sI59563
I2009
sI26797
I2007
sI59566
I2009
sI26800
I2007
sI26802
I2007
sI59574
I2009
sI59575
I2009
sI26811
I2007
sI26814
I2007
sI59584
I2009
sI59597
I2009
sI59598
I2009
sI26831
I2007
sI92371
I2011
sI92372
I2011
sI59605
I2009
sI92376
I2011
sI90960
I2011
sI95822
I2011
sI26851
I2007
sI59620
I2009
sI26853
I2007
sI92395
I2011
sI92402
I2011
sI92404
I2011
sI92405
I2011
sI92407
I2011
sI26872
I2007
sI59646
I2009
sI26880
I2007
sI59649
I2009
sI97323
I2011
sI26884
I2007
sI92425
I2011
sI59658
I2009
sI59659
I2009
sI59660
I2009
sI26893
I2007
sI80941
I2011
sI26897
I2007
sI59671
I2009
sI4485
I2002
sI26915
I2007
sI92452
I2011
sI59685
I2009
sI26922
I2007
sI26923
I2007
sI92461
I2011
sI59701
I2009
sI92471
I2011
sI59705
I2009
sI59706
I2009
sI26940
I2007
sI59709
I2009
sI59710
I2009
sI26943
I2007
sI59713
I2009
sI59714
I2009
sI26947
I2007
sI92485
I2011
sI59722
I2009
sI92491
I2011
sI59728
I2009
sI26961
I2007
sI59735
I2009
sI59736
I2009
sI26974
I2007
sI26975
I2007
sI26977
I2007
sI26978
I2007
sI49280
I2009
sI26981
I2007
sI59751
I2009
sI59753
I2009
sI59754
I2009
sI26988
I2007
sI59757
I2009
sI59760
I2009
sI59761
I2009
sI59768
I2009
sI59769
I2009
sI27004
I2007
sI27007
I2007
sI27009
I2007
sI27010
I2007
sI27014
I2007
sI92553
I2011
sI59791
I2009
sI27027
I2007
sI27030
I2007
sI92569
I2011
sI59802
I2009
sI27036
I2007
sI92573
I2011
sI27042
I2007
sI27044
I2007
sI27046
I2007
sI59815
I2009
sI27048
I2007
sI59817
I2009
sI27052
I2007
sI95829
I2011
sI59123
I2009
sI27060
I2007
sI92599
I2011
sI27066
I2007
sI27068
I2007
sI92609
I2011
sI92613
I2011
sI92615
I2011
sI80973
I2011
sI27088
I2007
sI70051
I2010
sI27097
I2007
sI59866
I2009
sI27102
I2007
sI27105
I2007
sI92642
I2011
sI27108
I2007
sI59879
I2009
sI59880
I2009
sI42748
I2008
sI59882
I2009
sI27115
I2007
sI59886
I2009
sI27119
I2007
sI92667
I2011
sI92670
I2011
sI59905
I2009
sI92674
I2011
sI92675
I2011
sI27141
I2007
sI27142
I2007
sI9985
I2004
sI27149
I2007
sI59918
I2009
sI27152
I2007
sI27153
I2007
sI92691
I2011
sI27164
I2007
sI27165
I2007
sI27168
I2007
sI59937
I2009
sI27170
I2007
sI59941
I2009
sI92711
I2011
sI59944
I2009
sI59952
I2009
sI92721
I2011
sI59955
I2009
sI27188
I2007
sI27196
I2007
sI27197
I2007
sI37301
I2008
sI73068
I2010
sI92746
I2011
sI59979
I2009
sI27212
I2007
sI27215
I2007
sI59984
I2009
sI59986
I2009
sI27220
I2007
sI92758
I2011
sI27223
I2007
sI92760
I2011
sI27225
I2007
sI27228
I2007
sI59998
I2009
sI60009
I2009
sI60010
I2009
sI60015
I2009
sI27250
I2007
sI27251
I2007
sI92790
I2011
sI92792
I2011
sI60026
I2009
sI27259
I2007
sI60032
I2009
sI27266
I2007
sI27268
I2007
sI60037
I2009
sI92807
I2011
sI68558
I2010
sI9637
I2004
sI92811
I2011
sI92563
I2011
sI53698
I2009
sI60047
I2009
sI60049
I2009
sI92819
I2011
sI92821
I2011
sI27286
I2007
sI92823
I2011
sI92824
I2011
sI81007
I2011
sI27292
I2007
sI27295
I2007
sI60067
I2009
sI92836
I2011
sI60069
I2009
sI27304
I2007
sI92842
I2011
sI48242
I2008
sI42781
I2008
sI92848
I2011
sI92853
I2011
sI27318
I2007
sI92855
I2011
sI42783
I2008
sI60092
I2009
sI27327
I2007
sI27330
I2007
sI75553
I2011
sI92873
I2011
sI81016
I2011
sI92890
I2011
sI92895
I2011
sI92896
I2011
sI51103
I2009
sI119249
I2012
sI91475
I2011
sI53714
I2009
sI14005
I2005
sI92914
I2011
sI20947
I2006
sI20948
I2006
sI92923
I2011
sI53717
I2009
sI77652
I2011
sI82453
I2011
sI53720
I2009
sI81027
I2011
sI92948
I2011
sI20953
I2006
sI92956
I2011
sI92960
I2011
sI92961
I2011
sI27426
I2007
sI20955
I2006
sI27428
I2007
sI27429
I2007
sI27430
I2007
sI27431
I2007
sI27436
I2007
sI92973
I2011
sI92974
I2011
sI92975
I2011
sI27440
I2007
sI92977
I2011
sI92978
I2011
sI92979
I2011
sI92982
I2011
sI92988
I2011
sI27453
I2007
sI92993
I2011
sI27458
I2007
sI27459
I2007
sI27461
I2007
sI93000
I2011
sI97420
I2011
sI60237
I2009
sI93009
I2011
sI27474
I2007
sI53731
I2009
sI75577
I2011
sI86023
I2011
sI27483
I2007
sI27486
I2007
sI60255
I2009
sI27490
I2007
sI86502
I2011
sI93031
I2011
sI27498
I2007
sI27499
I2007
sI27501
I2007
sI93041
I2011
sI60274
I2009
sI93043
I2011
sI27512
I2007
sI27513
I2007
sI27515
I2007
sI93054
I2011
sI10049
I2004
sI27535
I2007
sI81048
I2011
sI27541
I2007
sI27544
I2007
sI59204
I2009
sI27548
I2007
sI53744
I2009
sI27557
I2007
sI60327
I2009
sI78388
I2011
sI75592
I2011
sI93106
I2011
sI60339
I2009
sI27572
I2007
sI27574
I2007
sI60343
I2009
sI27576
I2007
sI60345
I2009
sI93114
I2011
sI27579
I2007
sI93116
I2011
sI27582
I2007
sI37365
I2008
sI27584
I2007
sI60357
I2009
sI60358
I2009
sI93129
I2011
sI27595
I2007
sI87118
I2011
sI27597
I2007
sI60366
I2009
sI93136
I2011
sI53752
I2009
sI60372
I2009
sI93142
I2011
sI53753
I2009
sI27609
I2007
sI93149
I2011
sI27621
I2007
sI27622
I2007
sI86524
I2011
sI87119
I2011
sI60397
I2009
sI27631
I2007
sI60403
I2009
sI67479
I2010
sI93174
I2011
sI27643
I2007
sI27645
I2007
sI60416
I2009
sI27649
I2007
sI75606
I2011
sI93191
I2011
sI27657
I2007
sI60428
I2009
sI64685
I2009
sI93200
I2011
sI27671
I2007
sI27672
I2007
sI6377
I2003
sI60444
I2009
sI27677
I2007
sI60446
I2009
sI27679
I2007
sI93216
I2011
sI93217
I2011
sI93219
I2011
sI93223
I2011
sI4615
I2002
sI60461
I2009
sI60462
I2009
sI67481
I2010
sI60466
I2009
sI93237
I2011
sI60471
I2009
sI93240
I2011
sI93246
I2011
sI60479
I2009
sI60480
I2009
sI27713
I2007
sI60482
I2009
sI27715
I2007
sI60485
I2009
sI60489
I2009
sI27722
I2007
sI27723
I2007
sI27724
I2007
sI60496
I2009
sI47321
I2008
sI27730
I2007
sI27731
I2007
sI27733
I2007
sI89305
I2011
sI60512
I2009
sI95852
I2011
sI93288
I2011
sI60522
I2009
sI27757
I2007
sI27762
I2007
sI27763
I2007
sI60532
I2009
sI93303
I2011
sI93304
I2011
sI27769
I2007
sI27771
I2007
sI27772
I2007
sI27774
I2007
sI60543
I2009
sI60544
I2009
sI27777
I2007
sI27782
I2007
sI60551
I2009
sI27784
I2007
sI60554
I2009
sI60557
I2009
sI60563
I2009
sI60564
I2009
sI60565
I2009
sI86553
I2011
sI27808
I2007
sI27809
I2007
sI27810
I2007
sI27813
I2007
sI60588
I2009
sI71981
I2010
sI93361
I2011
sI60594
I2009
sI35974
I2008
sI4639
I2002
sI27839
I2007
sI60611
I2009
sI93380
I2011
sI27845
I2007
sI93382
I2011
sI93383
I2011
sI97077
I2011
sI27854
I2007
sI27855
I2007
sI27857
I2007
sI27859
I2007
sI93396
I2011
sI93397
I2011
sI60630
I2009
sI93400
I2011
sI60633
I2009
sI93402
I2011
sI60635
I2009
sI92026
I2011
sI102949
I2012
sI27875
I2007
sI93416
I2011
sI60650
I2009
sI27888
I2007
sI27889
I2007
sI27891
I2007
sI27893
I2007
sI60663
I2009
sI53802
I2009
sI60673
I2009
sI60675
I2009
sI60676
I2009
sI60677
I2009
sI60678
I2009
sI60679
I2009
sI60680
I2009
sI97495
I2011
sI60687
I2009
sI60688
I2009
sI60689
I2009
sI27922
I2007
sI60691
I2009
sI60692
I2009
sI60693
I2009
sI27927
I2007
sI60697
I2009
sI60698
I2009
sI60699
I2009
sI60700
I2009
sI60701
I2009
sI27936
I2007
sI8568
I2004
sI81115
I2011
sI93478
I2011
sI27943
I2007
sI27946
I2007
sI59271
I2009
sI60719
I2009
sI60720
I2009
sI4660
I2002
sI60733
I2009
sI93502
I2011
sI4661
I2002
sI48352
I2008
sI99133
I2012
sI27974
I2007
sI81122
I2011
sI42893
I2008
sI60752
I2009
sI60753
I2009
sI60754
I2009
sI78402
I2011
sI42894
I2008
sI27993
I2007
sI60767
I2009
sI28001
I2007
sI93538
I2011
sI93539
I2011
sI28009
I2007
sI28014
I2007
sI28016
I2007
sI28017
I2007
sI28018
I2007
sI93559
I2011
sI93563
I2011
sI28028
I2007
sI28029
I2007
sI28030
I2007
sI93567
I2011
sI60800
I2009
sI4672
I2003
sI60803
I2009
sI60805
I2009
sI60806
I2009
sI28050
I2007
sI60819
I2009
sI28056
I2007
sI37444
I2008
sI60827
I2009
sI60828
I2009
sI28061
I2007
sI60830
I2009
sI60831
I2009
sI28065
I2007
sI28066
I2007
sI64753
I2010
sI60841
I2009
sI28076
I2007
sI28078
I2007
sI60848
I2009
sI60851
I2009
sI59856
I2009
sI70217
I2010
sI28088
I2007
sI93626
I2011
sI28097
I2007
sI28100
I2007
sI71859
I2010
sI60873
I2009
sI60874
I2009
sI97527
I2011
sI60876
I2009
sI99261
I2012
sI28113
I2007
sI28114
I2007
sI28115
I2007
sI28116
I2007
sI28117
I2007
sI93654
I2011
sI93656
I2011
sI60896
I2009
sI96956
I2011
sI60905
I2009
sI28139
I2007
sI93681
I2011
sI93682
I2011
sI53843
I2009
sI93684
I2011
sI60917
I2009
sI60918
I2009
sI28151
I2007
sI60921
I2009
sI60924
I2009
sI28159
I2007
sI64768
I2010
sI28162
I2007
sI60933
I2009
sI28166
I2007
sI85295
I2011
sI86615
I2011
sI60940
I2009
sI28173
I2007
sI28174
I2007
sI60943
I2009
sI28176
I2007
sI28177
I2007
sI81155
I2011
sI60949
I2009
sI93719
I2011
sI28185
I2007
sI60957
I2009
sI93736
I2011
sI52222
I2009
sI60972
I2009
sI60973
I2009
sI60974
I2009
sI60975
I2009
sI28213
I2007
sI28214
I2007
sI93751
I2011
sI28216
I2007
sI93754
I2011
sI28219
I2007
sI28220
I2007
sI60989
I2009
sI60990
I2009
sI93759
I2011
sI60992
I2009
sI60993
I2009
sI28226
I2007
sI28227
I2007
sI93764
I2011
sI28229
I2007
sI28230
I2007
sI61001
I2009
sI93771
I2011
sI53858
I2009
sI61006
I2009
sI28245
I2007
sI28246
I2007
sI61015
I2009
sI28248
I2007
sI37476
I2008
sI28250
I2007
sI61019
I2009
sI61023
I2009
sI28256
I2007
sI28257
I2007
sI61027
I2009
sI28260
I2007
sI4710
I2003
sI64785
I2010
sI93800
I2011
sI28266
I2007
sI86631
I2011
sI8579
I2004
sI28276
I2007
sI28277
I2007
sI28278
I2007
sI28282
I2007
sI92095
I2011
sI28284
I2007
sI28285
I2007
sI78412
I2011
sI93827
I2011
sI93828
I2011
sI28293
I2007
sI83868
I2011
sI92098
I2011
sI97560
I2011
sI28307
I2007
sI97561
I2011
sI28312
I2007
sI28313
I2007
sI28314
I2007
sI95871
I2011
sI28316
I2007
sI61089
I2009
sI61093
I2009
sI28326
I2007
sI61095
I2009
sI28333
I2007
sI48413
I2008
sI93873
I2011
sI28340
I2007
sI28341
I2007
sI97567
I2011
sI78313
I2011
sI61117
I2009
sI28350
I2007
sI93888
I2011
sI28353
I2007
sI28354
I2007
sI28355
I2007
sI28357
I2007
sI61127
I2009
sI28363
I2007
sI28366
I2007
sI93903
I2011
sI113955
I2012
sI61143
I2009
sI87144
I2011
sI61146
I2009
sI61147
I2009
sI61149
I2009
sI28382
I2007
sI28383
I2007
sI61154
I2009
sI28387
I2007
sI28388
I2007
sI28389
I2007
sI61158
I2009
sI28392
I2007
sI61161
I2009
sI28400
I2007
sI28407
I2007
sI28410
I2007
sI28411
I2007
sI28412
I2007
sI93949
I2011
sI28414
I2007
sI28415
I2007
sI61184
I2009
sI93954
I2011
sI28419
I2007
sI28422
I2007
sI93960
I2011
sI61193
I2009
sI28426
I2007
sI61199
I2009
sI93968
I2011
sI28435
I2007
sI83551
I2011
sI28438
I2007
sI28442
I2007
sI28444
I2007
sI61215
I2009
sI28448
I2007
sI28450
I2007
sI28451
I2007
sI86662
I2011
sI93990
I2011
sI28455
I2007
sI28456
I2007
sI61226
I2009
sI61227
I2009
sI61231
I2009
sI61232
I2009
sI28466
I2007
sI28470
I2007
sI61239
I2009
sI28474
I2007
sI4746
I2003
sI94017
I2011
sI28489
I2007
sI28491
I2007
sI94029
I2011
sI94030
I2011
sI93918
I2011
sI94032
I2011
sI28497
I2007
sI28498
I2007
sI94035
I2011
sI28501
I2007
sI94038
I2011
sI28503
I2007
sI28505
I2007
sI86671
I2011
sI94044
I2011
sI28514
I2007
sI94052
I2011
sI10214
I2004
sI28523
I2007
sI28524
I2007
sI28530
I2007
sI28532
I2007
sI94069
I2011
sI94071
I2011
sI94074
I2011
sI81215
I2011
sI94076
I2011
sI28551
I2007
sI69692
I2010
sI28571
I2007
sI28572
I2007
sI94111
I2011
sI28578
I2007
sI46779
I2008
sI28583
I2007
sI28584
I2007
sI28591
I2007
sI94133
I2011
sI64841
I2010
sI10229
I2004
sI94145
I2011
sI28619
I2007
sI28620
I2007
sI28621
I2007
sI81229
I2011
sI10232
I2004
sI28627
I2007
sI28628
I2007
sI28629
I2007
sI28630
I2007
sI43001
I2008
sI28632
I2007
sI94173
I2011
sI28639
I2007
sI10236
I2004
sI86695
I2011
sI28652
I2007
sI94194
I2011
sI28659
I2007
sI28661
I2007
sI28662
I2007
sI28666
I2007
sI94203
I2011
sI28679
I2007
sI94226
I2011
sI28699
I2007
sI28704
I2007
sI28712
I2007
sI28715
I2007
sI28716
I2007
sI43017
I2008
sI64863
I2010
sI64864
I2010
sI94277
I2011
sI70896
I2010
sI94283
I2011
sI86712
I2011
sI94290
I2011
sI97635
I2011
sI94292
I2011
sI28757
I2007
sI28758
I2007
sI94295
I2011
sI94297
I2011
sI94298
I2011
sI28767
I2007
sI64871
I2010
sI94316
I2011
sI28781
I2007
sI86717
I2011
sI94320
I2011
sI94321
I2011
sI28793
I2007
sI86719
I2011
sI95939
I2011
sI70336
I2010
sI97643
I2011
sI94344
I2011
sI94345
I2011
sI28810
I2007
sI26647
I2007
sI94349
I2011
sI94351
I2011
sI94354
I2011
sI70339
I2010
sI28822
I2007
sI28823
I2007
sI28824
I2007
sI94361
I2011
sI28828
I2007
sI28832
I2007
sI28833
I2007
sI28834
I2007
sI94375
I2011
sI48498
I2008
sI92189
I2011
sI28861
I2007
sI108576
I2012
sI94402
I2011
sI94403
I2011
sI83887
I2011
sI94406
I2011
sI28873
I2007
sI64888
I2010
sI28886
I2007
sI92283
I2011
sI77341
I2011
sI81274
I2011
sI28894
I2007
sI94433
I2011
sI28898
I2007
sI10278
I2004
sI94453
I2011
sI94456
I2011
sI94460
I2011
sI94462
I2011
sI53973
I2009
sI94465
I2011
sI28931
I2007
sI28935
I2007
sI28936
I2007
sI28937
I2007
sI28939
I2007
sI94477
I2011
sI28942
I2007
sI94489
I2011
sI28956
I2007
sI67523
I2010
sI94499
I2011
sI28969
I2007
sI28970
I2007
sI28972
I2007
sI28975
I2007
sI61751
I2009
sI61753
I2009
sI94522
I2011
sI94523
I2011
sI94524
I2011
sI61757
I2009
sI61765
I2009
sI28998
I2007
sI53985
I2009
sI48524
I2008
sI95894
I2011
sI64909
I2010
sI59887
I2009
sI29019
I2007
sI29020
I2007
sI29022
I2007
sI29023
I2007
sI29024
I2007
sI94570
I2011
sI29035
I2007
sI29036
I2007
sI29038
I2007
sI61807
I2009
sI61808
I2009
sI83555
I2011
sI61810
I2009
sI64915
I2010
sI108606
I2012
sI94583
I2011
sI94584
I2011
sI94585
I2011
sI94594
I2011
sI61828
I2009
sI94599
I2011
sI61834
I2009
sI97687
I2012
sI94608
I2011
sI64920
I2010
sI86766
I2011
sI94615
I2011
sI61849
I2009
sI94618
I2011
sI86767
I2011
sI61852
I2009
sI48538
I2008
sI61856
I2009
sI94628
I2011
sI94636
I2011
sI35885
I2008
sI81309
I2011
sI70387
I2010
sI94645
I2011
sI61878
I2009
sI61879
I2009
sI70388
I2010
sI61883
I2009
sI61884
I2009
sI61885
I2009
sI70389
I2010
sI61889
I2009
sI61892
I2009
sI54007
I2009
sI61904
I2009
sI61905
I2009
sI94675
I2011
sI64933
I2010
sI61920
I2009
sI61921
I2009
sI86611
I2011
sI94704
I2011
sI4862
I2003
sI61942
I2009
sI61943
I2009
sI61944
I2009
sI61945
I2009
sI94714
I2011
sI94716
I2011
sI59477
I2009
sI94722
I2011
sI61958
I2009
sI61959
I2009
sI94728
I2011
sI61962
I2009
sI94734
I2011
sI61967
I2009
sI43096
I2008
sI72987
I2010
sI94745
I2011
sI61999
I2009
sI62004
I2009
sI94778
I2011
sI62011
I2009
sI62017
I2009
sI94788
I2011
sI94789
I2011
sI94790
I2011
sI95777
I2011
sI94793
I2011
sI62030
I2009
sI62031
I2009
sI62041
I2009
sI94811
I2011
sI62051
I2009
sI29285
I2007
sI62059
I2009
sI62061
I2009
sI62062
I2009
sI97725
I2012
sI62064
I2009
sI86803
I2011
sI29303
I2007
sI69717
I2010
sI29312
I2007
sI52259
I2009
sI92267
I2011
sI29317
I2007
sI94862
I2011
sI92269
I2011
sI94865
I2011
sI114115
I2012
sI62102
I2009
sI62104
I2009
sI94874
I2011
sI94875
I2011
sI62108
I2009
sI62112
I2009
sI92272
I2011
sI29347
I2007
sI29348
I2007
sI77665
I2011
sI29356
I2007
sI29368
I2007
sI64970
I2010
sI92278
I2011
sI94918
I2011
sI64972
I2010
sI86818
I2011
sI29390
I2007
sI29392
I2007
sI29399
I2007
sI93725
I2011
sI62179
I2009
sI29413
I2007
sI29415
I2007
sI62186
I2009
sI71903
I2010
sI29423
I2007
sI62193
I2009
sI62194
I2009
sI62195
I2009
sI62196
I2009
sI62198
I2009
sI70441
I2010
sI92287
I2011
sI29436
I2007
sI29438
I2007
sI29439
I2007
sI29440
I2007
sI29443
I2007
sI29444
I2007
sI94991
I2011
sI94992
I2011
sI95003
I2011
sI29468
I2007
sI95007
I2011
sI95009
I2011
sI92294
I2011
sI68064
I2010
sI103218
I2012
sI62255
I2009
sI84492
I2011
sI29489
I2007
sI70451
I2010
sI62261
I2009
sI62268
I2009
sI29502
I2007
sI29507
I2007
sI62277
I2009
sI97761
I2012
sI29519
I2007
sI29520
I2007
sI29522
I2007
sI95065
I2011
sI29530
I2007
sI29531
I2007
sI29532
I2007
sI95069
I2011
sI95070
I2011
sI29539
I2007
sI29547
I2007
sI62316
I2009
sI59538
I2009
sI62318
I2009
sI62324
I2009
sI103230
I2012
sI114153
I2012
sI62333
I2009
sI92309
I2011
sI29568
I2007
sI62349
I2009
sI81389
I2011
sI81390
I2011
sI114159
I2012
sI29599
I2007
sI29600
I2007
sI29604
I2007
sI79547
I2011
sI29609
I2007
sI29631
I2007
sI29633
I2007
sI29637
I2007
sI59553
I2009
sI62411
I2009
sI62413
I2009
sI62415
I2009
sI62418
I2009
sI70478
I2010
sI65017
I2010
sI103247
I2012
sI62432
I2009
sI29667
I2007
sI62436
I2009
sI29669
I2007
sI29670
I2007
sI29672
I2007
sI29676
I2007
sI97789
I2012
sI83914
I2011
sI62449
I2009
sI62453
I2009
sI62454
I2009
sI6444
I2003
sI62456
I2009
sI29691
I2007
sI29694
I2007
sI29698
I2007
sI29701
I2007
sI68639
I2010
sI43180
I2008
sI29709
I2007
sI86872
I2011
sI62484
I2009
sI62486
I2009
sI86873
I2011
sI95257
I2011
sI62492
I2009
sI70490
I2010
sI62495
I2009
sI62496
I2009
sI59568
I2009
sI62498
I2009
sI95267
I2011
sI95269
I2011
sI95272
I2011
sI29737
I2007
sI95274
I2011
sI95275
I2011
sI59570
I2009
sI29746
I2007
sI29752
I2007
sI29753
I2007
sI29756
I2007
sI70497
I2010
sI97301
I2011
sI4965
I2003
sI62566
I2009
sI4968
I2003
sI82469
I2011
sI80645
I2011
sI92350
I2011
sI62589
I2009
sI62591
I2009
sI103275
I2012
sI70509
I2010
sI103278
I2012
sI62623
I2009
sI62632
I2009
sI97820
I2012
sI62637
I2009
sI95412
I2011
sI62649
I2009
sI35911
I2008
sI29893
I2007
sI65057
I2010
sI29896
I2007
sI29900
I2007
sI95437
I2011
sI95440
I2011
sI62674
I2009
sI29909
I2007
sI54137
I2009
sI97828
I2012
sI95450
I2011
sI59599
I2009
sI62685
I2009
sI29918
I2007
sI62687
I2009
sI95456
I2011
sI62689
I2009
sI82831
I2011
sI29925
I2007
sI95466
I2011
sI108754
I2012
sI29936
I2007
sI29940
I2007
sI62711
I2009
sI62713
I2009
sI29946
I2007
sI29947
I2007
sI29950
I2007
sI29951
I2007
sI4993
I2003
sI62731
I2009
sI62732
I2009
sI62733
I2009
sI29966
I2007
sI29974
I2007
sI29976
I2007
sI70532
I2010
sI67557
I2010
sI62750
I2009
sI95522
I2011
sI62755
I2009
sI62758
I2009
sI62760
I2009
sI62761
I2009
sI29994
I2007
sI29996
I2007
sI97842
I2012
sI30002
I2007
sI62774
I2009
sI95546
I2011
sI30014
I2007
sI30016
I2007
sI30017
I2007
sI95554
I2011
sI95555
I2011
sI95556
I2011
sI95557
I2011
sI80652
I2011
sI62791
I2009
sI95560
I2011
sI95562
I2011
sI30027
I2007
sI95567
I2011
sI30033
I2007
sI30035
I2007
sI30037
I2007
sI8638
I2004
sI30041
I2007
sI30042
I2007
sI30043
I2007
sI30044
I2007
sI30045
I2007
sI30048
I2007
sI30051
I2007
sI62823
I2009
sI62824
I2009
sI62826
I2009
sI62829
I2009
sI62838
I2009
sI54164
I2009
sI9802
I2004
sI30079
I2007
sI46829
I2008
sI30085
I2007
sI30086
I2007
sI95623
I2011
sI95624
I2011
sI95625
I2011
sI30091
I2007
sI62860
I2009
sI30093
I2007
sI95630
I2011
sI95632
I2011
sI30099
I2007
sI62872
I2009
sI95644
I2011
sI95648
I2011
sI62881
I2009
sI95654
I2011
sI30119
I2007
sI30121
I2007
sI30123
I2007
sI30124
I2007
sI30125
I2007
sI95662
I2011
sI95666
I2011
sI30131
I2007
sI30132
I2007
sI82838
I2011
sI95671
I2011
sI95674
I2011
sI86943
I2011
sI62910
I2009
sI62916
I2009
sI62917
I2009
sI95688
I2011
sI30155
I2007
sI30158
I2007
sI30159
I2007
sI30160
I2007
sI30161
I2007
sI62930
I2009
sI95699
I2011
sI30165
I2007
sI95702
I2011
sI95703
I2011
sI95704
I2011
sI95705
I2011
sI95706
I2011
sI95707
I2011
sI95708
I2011
sI30173
I2007
sI95710
I2011
sI86949
I2011
sI95712
I2011
sI95713
I2011
sI95715
I2011
sI30180
I2007
sI30181
I2007
sI30182
I2007
sI81489
I2011
sI95720
I2011
sI95721
I2011
sI95722
I2011
sI95723
I2011
sI95724
I2011
sI81490
I2011
sI95726
I2011
sI62959
I2009
sI95730
I2011
sI95731
I2011
sI78339
I2011
sI92414
I2011
sI95734
I2011
sI30199
I2007
sI30200
I2007
sI95737
I2011
sI95738
I2011
sI30203
I2007
sI62972
I2009
sI62973
I2009
sI62974
I2009
sI62975
I2009
sI95744
I2011
sI30209
I2007
sI95746
I2011
sI62979
I2009
sI95748
I2011
sI30213
I2007
sI30214
I2007
sI30215
I2007
sI95752
I2011
sI95753
I2011
sI95755
I2011
sI95756
I2011
sI95758
I2011
sI30223
I2007
sI62992
I2009
sI30225
I2007
sI62994
I2009
sI95763
I2011
sI62996
I2009
sI62997
I2009
sI95766
I2011
sI30231
I2007
sI95768
I2011
sI30233
I2007
sI95770
I2011
sI30235
I2007
sI63004
I2009
sI45743
I2008
sI30240
I2007
sI30241
I2007
sI95778
I2011
sI63011
I2009
sI95781
I2011
sI63014
I2009
sI95783
I2011
sI95784
I2011
sI63018
I2009
sI95788
I2011
sI63021
I2009
sI63022
I2009
sI95791
I2011
sI95792
I2011
sI30257
I2007
sI95796
I2011
sI63029
I2009
sI69815
I2010
sI95799
I2011
sI95804
I2011
sI95805
I2011
sI95806
I2011
sI95808
I2011
sI30273
I2007
sI95811
I2011
sI63044
I2009
sI63045
I2009
sI30278
I2007
sI95815
I2011
sI95816
I2011
sI95817
I2011
sI95818
I2011
sI95819
I2011
sI95820
I2011
sI95821
I2011
sI63054
I2009
sI63055
I2009
sI30288
I2007
sI63061
I2009
sI63064
I2009
sI30301
I2007
sI95839
I2011
sI63072
I2009
sI95846
I2011
sI96114
I2011
sI30316
I2007
sI63085
I2009
sI6465
I2003
sI95858
I2011
sI95861
I2011
sI30327
I2007
sI95865
I2011
sI95866
I2011
sI88072
I2011
sI30335
I2007
sI95872
I2011
sI95873
I2011
sI63107
I2009
sI63108
I2009
sI63109
I2009
sI95878
I2011
sI63111
I2009
sI95880
I2011
sI63113
I2009
sI63114
I2009
sI95883
I2011
sI95885
I2011
sI95886
I2011
sI63119
I2009
sI95893
I2011
sI63126
I2009
sI63129
I2009
sI35927
I2008
sI95904
I2011
sI77890
I2011
sI30374
I2007
sI30375
I2007
sI99213
I2012
sI30380
I2007
sI48754
I2009
sI30382
I2007
sI30389
I2007
sI30390
I2007
sI95933
I2011
sI48757
I2009
sI91576
I2011
sI30405
I2007
sI63174
I2009
sI95943
I2011
sI95946
I2011
sI30413
I2007
sI63184
I2009
sI97912
I2012
sI30418
I2007
sI63187
I2009
sI95957
I2011
sI95958
I2011
sI61025
I2009
sI95964
I2011
sI30431
I2007
sI75210
I2011
sI30439
I2007
sI95984
I2011
sI95987
I2011
sI30452
I2007
sI76363
I2011
sI30454
I2007
sI95991
I2011
sI30457
I2007
sI63226
I2009
sI59690
I2009
sI66482
I2010
sI63233
I2009
sI63235
I2009
sI63236
I2009
sI30473
I2007
sI30475
I2007
sI30483
I2007
sI30484
I2007
sI30485
I2007
sI30486
I2007
sI30492
I2007
sI30496
I2007
sI30497
I2007
sI30498
I2007
sI30501
I2007
sI96038
I2011
sI11927
I2005
sI94853
I2011
sI9217
I2004
sI30521
I2007
sI96058
I2011
sI30523
I2007
sI81546
I2011
sI55573
I2009
sI30539
I2007
sI54242
I2009
sI96078
I2011
sI61029
I2009
sI59938
I2009
sI30553
I2007
sI30554
I2007
sI96094
I2011
sI71941
I2010
sI54246
I2009
sI63340
I2009
sI30576
I2007
sI30578
I2007
sI68694
I2010
sI96117
I2011
sI96121
I2011
sI59711
I2009
sI63357
I2009
sI98129
I2012
sI96129
I2011
sI30594
I2007
sI63364
I2009
sI30603
I2007
sI63372
I2009
sI30606
I2007
sI30607
I2007
sI63376
I2009
sI96145
I2011
sI92483
I2011
sI30612
I2007
sI30615
I2007
sI63387
I2009
sI63394
I2009
sI65180
I2010
sI30637
I2007
sI63406
I2009
sI30643
I2007
sI96180
I2011
sI30646
I2007
sI30647
I2007
sI81568
I2011
sI95949
I2011
sI30669
I2007
sI30673
I2007
sI30675
I2007
sI91422
I2011
sI30677
I2007
sI30678
I2007
sI30681
I2007
sI30684
I2007
sI63453
I2009
sI30687
I2007
sI87035
I2011
sI61034
I2009
sI63468
I2009
sI30704
I2007
sI30708
I2007
sI96246
I2011
sI96247
I2011
sI63480
I2009
sI87039
I2011
sI63486
I2009
sI63488
I2009
sI30723
I2007
sI88509
I2011
sI96264
I2011
sI30730
I2007
sI30732
I2007
sI30733
I2007
sI30735
I2007
sI30738
I2007
sI96275
I2011
sI65198
I2010
sI30742
I2007
sI30743
I2007
sI63512
I2009
sI63513
I2009
sI63514
I2009
sI96285
I2011
sI63519
I2009
sI96288
I2011
sI63521
I2009
sI63522
I2009
sI96295
I2011
sI30767
I2007
sI30768
I2007
sI63537
I2009
sI63539
I2009
sI63540
I2009
sI30773
I2007
sI30774
I2007
sI63543
I2009
sI65204
I2010
sI30778
I2007
sI63547
I2009
sI10593
I2005
sI30794
I2007
sI30795
I2007
sI96335
I2011
sI63220
I2009
sI30806
I2007
sI30808
I2007
sI30810
I2007
sI63579
I2009
sI48826
I2009
sI63582
I2009
sI96351
I2011
sI63584
I2009
sI63585
I2009
sI30818
I2007
sI30820
I2007
sI30821
I2007
sI30823
I2007
sI63592
I2009
sI63595
I2009
sI72001
I2010
sI63599
I2009
sI63600
I2009
sI63602
I2009
sI63603
I2009
sI30837
I2007
sI30838
I2007
sI63608
I2009
sI63609
I2009
sI30844
I2007
sI63613
I2009
sI30849
I2007
sI96386
I2011
sI30852
I2007
sI63622
I2009
sI63624
I2009
sI97986
I2012
sI89409
I2011
sI30876
I2007
sI87067
I2011
sI30884
I2007
sI92529
I2011
sI96427
I2011
sI96430
I2011
sI63663
I2009
sI96432
I2011
sI96433
I2011
sI96444
I2011
sI63680
I2009
sI63681
I2009
sI30914
I2007
sI30915
I2007
sI63685
I2009
sI63686
I2009
sI96455
I2011
sI30920
I2007
sI30921
I2007
sI96458
I2011
sI30923
I2007
sI96460
I2011
sI96462
I2011
sI30927
I2007
sI30928
I2007
sI96465
I2011
sI96468
I2011
sI30940
I2007
sI63709
I2009
sI30942
I2007
sI63712
I2009
sI30945
I2007
sI59772
I2009
sI96493
I2011
sI30960
I2007
sI30961
I2007
sI63730
I2009
sI30963
I2007
sI30964
I2007
sI30966
I2007
sI9760
I2004
sI30969
I2007
sI63748
I2009
sI63750
I2009
sI59777
I2009
sI70700
I2010
sI30986
I2007
sI30988
I2007
sI30989
I2007
sI30990
I2007
sI30991
I2007
sI30996
I2007
sI31002
I2007
sI31010
I2007
sI31012
I2007
sI59782
I2009
sI31015
I2007
sI31020
I2007
sI31028
I2007
sI96567
I2011
sI31032
I2007
sI55590
I2009
sI31053
I2007
sI31054
I2007
sI31055
I2007
sI31056
I2007
sI98020
I2012
sI63834
I2009
sI92559
I2011
sI63836
I2009
sI87099
I2011
sI31083
I2007
sI31086
I2007
sI87101
I2011
sI31091
I2007
sI57774
I2009
sI96639
I2011
sI31106
I2007
sI31107
I2007
sI31108
I2007
sI63877
I2009
sI31112
I2007
sI31113
I2007
sI31115
I2007
sI68686
I2010
sI63885
I2009
sI96655
I2011
sI31121
I2007
sI96659
I2011
sI96662
I2011
sI96666
I2011
sI65263
I2010
sI63902
I2009
sI78864
I2011
sI63909
I2009
sI63910
I2009
sI98033
I2012
sI31147
I2007
sI31156
I2007
sI31160
I2007
sI31161
I2007
sI76191
I2011
sI31165
I2007
sI76192
I2011
sI31171
I2007
sI31172
I2007
sI61050
I2009
sI63942
I2009
sI31179
I2007
sI31180
I2007
sI31181
I2007
sI31182
I2007
sI31183
I2007
sI31184
I2007
sI31185
I2007
sI31186
I2007
sI31187
I2007
sI31188
I2007
sI31189
I2007
sI31190
I2007
sI31191
I2007
sI63960
I2009
sI31193
I2007
sI31194
I2007
sI31195
I2007
sI31196
I2007
sI96733
I2011
sI31199
I2007
sI96736
I2011
sI96738
I2011
sI96739
I2011
sI96740
I2011
sI59814
I2009
sI31206
I2007
sI31208
I2007
sI31211
I2007
sI59816
I2009
sI31219
I2007
sI65278
I2010
sI96759
I2011
sI63992
I2009
sI96761
I2011
sI31229
I2007
sI63999
I2009
sI64003
I2009
sI96772
I2011
sI96773
I2011
sI64006
I2009
sI59820
I2009
sI31246
I2007
sI31248
I2007
sI81667
I2011
sI96789
I2011
sI31255
I2007
sI76207
I2011
sI64028
I2009
sI64029
I2009
sI31264
I2007
sI31266
I2007
sI31267
I2007
sI31274
I2007
sI96812
I2011
sI96813
I2011
sI64050
I2009
sI64051
I2009
sI46869
I2008
sI96823
I2011
sI31293
I2007
sI31295
I2007
sI31296
I2007
sI96833
I2011
sI31299
I2007
sI96837
I2011
sI54370
I2009
sI64082
I2009
sI31315
I2007
sI96855
I2011
sI64088
I2009
sI64089
I2009
sI96009
I2011
sI64091
I2009
sI31324
I2007
sI31325
I2007
sI31334
I2007
sI64105
I2009
sI64107
I2009
sI64108
I2009
sI31341
I2007
sI64111
I2009
sI64112
I2009
sI64113
I2009
sI64114
I2009
sI64115
I2009
sI31349
I2007
sI31350
I2007
sI96887
I2011
sI31352
I2007
sI31353
I2007
sI31355
I2007
sI64124
I2009
sI76332
I2011
sI31361
I2007
sI64132
I2009
sI31367
I2007
sI64136
I2009
sI96906
I2011
sI96909
I2011
sI96911
I2011
sI64145
I2009
sI31378
I2007
sI96916
I2011
sI96919
I2011
sI31387
I2007
sI96926
I2011
sI71532
I2010
sI65307
I2010
sI96934
I2011
sI96937
I2011
sI96938
I2011
sI96939
I2011
sI96941
I2011
sI96942
I2011
sI31407
I2007
sI31410
I2007
sI31412
I2007
sI31414
I2007
sI64188
I2009
sI31423
I2007
sI31425
I2007
sI80734
I2011
sI96964
I2011
sI31431
I2007
sI54391
I2009
sI31438
I2007
sI96977
I2011
sI31445
I2007
sI96992
I2011
sI31457
I2007
sI31458
I2007
sI96998
I2011
sI96999
I2011
sI97000
I2011
sI31466
I2007
sI97003
I2011
sI97006
I2011
sI97008
I2011
sI81704
I2011
sI97010
I2011
sI64245
I2009
sI31478
I2007
sI64247
I2009
sI64252
I2009
sI31498
I2007
sI31502
I2007
sI31503
I2007
sI76248
I2011
sI31506
I2007
sI31507
I2007
sI31508
I2007
sI31509
I2007
sI31510
I2007
sI31511
I2007
sI31512
I2007
sI64282
I2009
sI64283
I2009
sI97052
I2011
sI31519
I2007
sI64293
I2009
sI97063
I2011
sI64298
I2009
sI5255
I2003
sI64300
I2009
sI31533
I2007
sI64302
I2009
sI98099
I2012
sI31541
I2007
sI64311
I2009
sI31555
I2007
sI31557
I2007
sI31561
I2007
sI97098
I2011
sI31565
I2007
sI64336
I2009
sI97111
I2011
sI64347
I2009
sI78771
I2011
sI97121
I2011
sI64354
I2009
sI97124
I2011
sI97125
I2011
sI31591
I2007
sI64361
I2009
sI92647
I2011
sI31600
I2007
sI64374
I2009
sI31607
I2007
sI64378
I2009
sI64379
I2009
sI64381
I2009
sI97151
I2011
sI97152
I2011
sI97153
I2011
sI97154
I2011
sI97155
I2011
sI97156
I2011
sI97158
I2011
sI64392
I2009
sI97161
I2011
sI31626
I2007
sI97163
I2011
sI97164
I2011
sI97165
I2011
sI97166
I2011
sI64401
I2009
sI97173
I2011
sI31639
I2007
sI31640
I2007
sI64409
I2009
sI31642
I2007
sI31643
I2007
sI97183
I2011
sI31650
I2007
sI64419
I2009
sI31652
I2007
sI64421
I2009
sI64424
I2009
sI87848
I2011
sI64428
I2009
sI31661
I2007
sI64430
I2009
sI64431
I2009
sI64432
I2009
sI48968
I2009
sI31674
I2007
sI31677
I2007
sI31678
I2007
sI31679
I2007
sI64448
I2009
sI31681
I2007
sI31682
I2007
sI64453
I2009
sI97223
I2011
sI64456
I2009
sI64458
I2009
sI64461
I2009
sI64464
I2009
sI73671
I2010
sI97234
I2011
sI64472
I2009
sI97242
I2011
sI31707
I2007
sI64476
I2009
sI31709
I2007
sI31710
I2007
sI64479
I2009
sI31712
I2007
sI35972
I2008
sI31717
I2007
sI31718
I2007
sI65361
I2010
sI64491
I2009
sI31726
I2007
sI64500
I2009
sI97269
I2011
sI64507
I2009
sI64508
I2009
sI64511
I2009
sI31744
I2007
sI31745
I2007
sI31749
I2007
sI31750
I2007
sI77681
I2011
sI97293
I2011
sI31761
I2007
sI64532
I2009
sI31765
I2007
sI31768
I2007
sI31769
I2007
sI64538
I2009
sI64539
I2009
sI31772
I2007
sI31774
I2007
sI64543
I2009
sI64544
I2009
sI64547
I2009
sI31781
I2007
sI97319
I2011
sI97322
I2011
sI31787
I2007
sI31789
I2007
sI97327
I2011
sI97328
I2011
sI97332
I2011
sI64565
I2009
sI64567
I2009
sI97336
I2011
sI97339
I2011
sI97340
I2011
sI31805
I2007
sI31809
I2007
sI31813
I2007
sI31816
I2007
sI31817
I2007
sI64588
I2009
sI64591
I2009
sI64594
I2009
sI64596
I2009
sI64597
I2009
sI64598
I2009
sI64600
I2009
sI31833
I2007
sI31834
I2007
sI97372
I2011
sI87226
I2011
sI97374
I2011
sI64607
I2009
sI10768
I2005
sI31844
I2007
sI82895
I2011
sI43537
I2008
sI97385
I2011
sI97386
I2011
sI64622
I2009
sI70845
I2010
sI31856
I2007
sI64625
I2009
sI64627
I2009
sI64628
I2009
sI97398
I2011
sI97399
I2011
sI31864
I2007
sI31872
I2007
sI87232
I2011
sI64643
I2009
sI64644
I2009
sI64646
I2009
sI31880
I2007
sI97418
I2011
sI31883
I2007
sI31884
I2007
sI31885
I2007
sI31889
I2007
sI31892
I2007
sI64664
I2009
sI64673
I2009
sI97443
I2011
sI64676
I2009
sI31910
I2007
sI31911
I2007
sI31913
I2007
sI31915
I2007
sI31916
I2007
sI31917
I2007
sI31918
I2007
sI31919
I2007
sI31920
I2007
sI97458
I2011
sI64691
I2009
sI97460
I2011
sI64694
I2009
sI97463
I2011
sI31929
I2007
sI64701
I2009
sI64704
I2009
sI64706
I2009
sI64707
I2009
sI64708
I2009
sI64709
I2009
sI64710
I2009
sI64711
I2009
sI64713
I2009
sI43554
I2008
sI64723
I2009
sI31956
I2007
sI64726
I2009
sI64727
I2009
sI97496
I2011
sI64729
I2009
sI87247
I2011
sI64733
I2009
sI64741
I2009
sI64745
I2010
sI64750
I2010
sI43560
I2008
sI43561
I2008
sI64760
I2010
sI31997
I2007
sI31998
I2007
sI64767
I2010
sI32000
I2007
sI64769
I2010
sI32005
I2007
sI32007
I2007
sI32008
I2007
sI43564
I2008
sI87255
I2011
sI64782
I2010
sI32017
I2007
sI97556
I2011
sI32022
I2007
sI97559
I2011
sI64792
I2010
sI32025
I2007
sI97562
I2011
sI97563
I2011
sI97564
I2011
sI97565
I2011
sI32031
I2007
sI92720
I2011
sI32035
I2007
sI32036
I2007
sI32037
I2007
sI64806
I2010
sI32039
I2007
sI64808
I2010
sI64814
I2010
sI97586
I2011
sI32054
I2007
sI32055
I2007
sI32060
I2007
sI64829
I2010
sI64830
I2010
sI97599
I2011
sI32065
I2007
sI32066
I2007
sI64836
I2010
sI97607
I2011
sI32072
I2007
sI32073
I2007
sI64846
I2010
sI32079
I2007
sI64848
I2010
sI64849
I2010
sI64861
I2010
sI64862
I2010
sI32095
I2007
sI32096
I2007
sI64865
I2010
sI54534
I2009
sI64867
I2010
sI64868
I2010
sI32103
I2007
sI32105
I2007
sI64875
I2010
sI97644
I2012
sI5352
I2003
sI64885
I2010
sI70889
I2010
sI32120
I2007
sI64890
I2010
sI32124
I2007
sI97662
I2012
sI97664
I2012
sI97665
I2012
sI64900
I2010
sI69811
I2010
sI32135
I2007
sI32137
I2007
sI32141
I2007
sI32143
I2007
sI97682
I2012
sI32147
I2007
sI64916
I2010
sI64917
I2010
sI64919
I2010
sI32152
I2007
sI54512
I2009
sI64931
I2010
sI32165
I2007
sI32169
I2007
sI32170
I2007
sI97708
I2012
sI32173
I2007
sI64943
I2010
sI64947
I2010
sI64950
I2010
sI97719
I2012
sI71995
I2010
sI97722
I2012
sI32189
I2007
sI97727
I2012
sI97728
I2012
sI97729
I2012
sI64962
I2010
sI64963
I2010
sI64964
I2010
sI64967
I2010
sI64969
I2010
sI32202
I2007
sI32204
I2007
sI32205
I2007
sI97750
I2012
sI32217
I2007
sI96001
I2011
sI32225
I2007
sI64994
I2010
sI97764
I2012
sI32231
I2007
sI65001
I2010
sI98215
I2012
sI65005
I2010
sI65008
I2010
sI65011
I2010
sI65012
I2010
sI32249
I2007
sI65021
I2010
sI97791
I2012
sI93820
I2011
sI65028
I2010
sI32262
I2007
sI8289
I2004
sI98185
I2012
sI65044
I2010
sI32277
I2007
sI65047
I2010
sI32281
I2007
sI32282
I2007
sI32283
I2007
sI65052
I2010
sI52358
I2009
sI32289
I2007
sI32290
I2007
sI32291
I2007
sI32292
I2007
sI32293
I2007
sI32294
I2007
sI32299
I2007
sI32300
I2007
sI98186
I2012
sI65074
I2010
sI97850
I2012
sI5386
I2003
sI65087
I2010
sI65088
I2010
sI97325
I2011
sI97858
I2012
sI65092
I2010
sI65093
I2010
sI65097
I2010
sI97872
I2012
sI65105
I2010
sI32339
I2007
sI32340
I2007
sI32341
I2007
sI32343
I2007
sI32345
I2007
sI32346
I2007
sI65117
I2010
sI65118
I2010
sI32352
I2007
sI65121
I2010
sI65123
I2010
sI32356
I2007
sI65125
I2010
sI97894
I2012
sI65128
I2010
sI98236
I2012
sI65130
I2010
sI65132
I2010
sI65133
I2010
sI65134
I2010
sI65141
I2010
sI65142
I2010
sI109161
I2012
sI65144
I2010
sI65149
I2010
sI65150
I2010
sI65152
I2010
sI65156
I2010
sI98241
I2012
sI54551
I2009
sI32396
I2007
sI65165
I2010
sI32398
I2007
sI32399
I2007
sI97936
I2012
sI65169
I2010
sI97939
I2012
sI65176
I2010
sI93834
I2011
sI97947
I2012
sI32412
I2007
sI65181
I2010
sI97950
I2012
sI97951
I2012
sI97952
I2012
sI109168
I2012
sI97954
I2012
sI97955
I2012
sI76401
I2011
sI97964
I2012
sI60018
I2009
sI37087
I2008
sI32433
I2007
sI32434
I2007
sI97971
I2012
sI32436
I2007
sI76404
I2011
sI65216
I2010
sI78995
I2011
sI65219
I2010
sI65226
I2010
sI65228
I2010
sI65230
I2010
sI32463
I2007
sI98000
I2012
sI65233
I2010
sI98004
I2012
sI98008
I2012
sI82916
I2011
sI99859
I2012
sI65247
I2010
sI98017
I2012
sI32483
I2007
sI65252
I2010
sI65254
I2010
sI65255
I2010
sI32490
I2007
sI32491
I2007
sI65260
I2010
sI32493
I2007
sI32495
I2007
sI32497
I2007
sI65266
I2010
sI32500
I2007
sI32503
I2007
sI65273
I2010
sI32507
I2007
sI32510
I2007
sI32511
I2007
sI32512
I2007
sI32514
I2007
sI98051
I2012
sI32517
I2007
sI32519
I2007
sI32521
I2007
sI32523
I2007
sI32524
I2007
sI65294
I2010
sI65295
I2010
sI65297
I2010
sI98066
I2012
sI65303
I2010
sI98073
I2012
sI98074
I2012
sI5423
I2003
sI65309
I2010
sI65310
I2010
sI32543
I2007
sI32550
I2007
sI98268
I2012
sI70962
I2010
sI49117
I2009
sI92808
I2011
sI65330
I2010
sI70963
I2010
sI32566
I2007
sI65337
I2010
sI65338
I2010
sI65341
I2010
sI65342
I2010
sI51277
I2009
sI32592
I2007
sI32593
I2007
sI98131
I2012
sI65368
I2010
sI98142
I2012
sI98143
I2012
sI65380
I2010
sI65381
I2010
sI69827
I2010
sI65383
I2010
sI32616
I2007
sI65385
I2010
sI65388
I2010
sI32621
I2007
sI32629
I2007
sI98166
I2012
sI98167
I2012
sI7943
I2004
sI65404
I2010
sI32638
I2007
sI65410
I2010
sI32644
I2007
sI52370
I2009
sI65417
I2010
sI65418
I2010
sI93181
I2011
sI98195
I2012
sI65430
I2010
sI65431
I2010
sI65435
I2010
sI65439
I2010
sI94925
I2011
sI65443
I2010
sI65446
I2010
sI32679
I2007
sI32682
I2007
sI98219
I2012
sI32684
I2007
sI32685
I2007
sI32686
I2007
sI65459
I2010
sI65460
I2010
sI65466
I2010
sI65468
I2010
sI65469
I2010
sI32702
I2007
sI32703
I2007
sI65472
I2010
sI65473
I2010
sI65478
I2010
sI98249
I2012
sI98253
I2012
sI32718
I2007
sI32721
I2007
sI98259
I2012
sI32724
I2007
sI65493
I2010
sI32726
I2007
sI65529
I2010
sI65496
I2010
sI54607
I2009
sI65500
I2010
sI68740
I2010
sI98280
I2012
sI32746
I2007
sI98283
I2012
sI65518
I2010
sI98288
I2012
sI65522
I2010
sI65523
I2010
sI32758
I2007
sI32759
I2007
sI65528
I2010
sI32761
I2007
sI32765
I2007
s.