ccollections
OrderedDict
p0
((lp1
(lp2
S'articles/1/cit/C6'
p3
aF0.712
aa(lp4
S'articles/1/cit/C7'
p5
aF0.874
aa(lp6
S'articles/1/cit/C8'
p7
aF0.783
aa(lp8
S'articles/1/cit/C9'
p9
aF0.763
aa(lp10
S'articles/2/cit/C6'
p11
aF0.712
aa(lp12
S'articles/2/cit/C7'
p13
aF0.874
aa(lp14
S'articles/2/cit/C8'
p15
aF0.783
aa(lp16
S'articles/2/cit/C9'
p17
aF0.763
aatp18
Rp19
.